
AVRASM ver. 2.1.30  E:\Projects\LN_SOLDER\firmware\Debug\List\lnsolder.asm Thu Jun 29 18:46:14 2017

E:\Projects\LN_SOLDER\firmware\Debug\List\lnsolder.asm(1086): warning: Register r4 already defined by the .DEF directive
E:\Projects\LN_SOLDER\firmware\Debug\List\lnsolder.asm(1087): warning: Register r5 already defined by the .DEF directive
E:\Projects\LN_SOLDER\firmware\Debug\List\lnsolder.asm(1088): warning: Register r7 already defined by the .DEF directive
E:\Projects\LN_SOLDER\firmware\Debug\List\lnsolder.asm(1089): warning: Register r8 already defined by the .DEF directive
E:\Projects\LN_SOLDER\firmware\Debug\List\lnsolder.asm(1090): warning: Register r9 already defined by the .DEF directive
E:\Projects\LN_SOLDER\firmware\Debug\List\lnsolder.asm(1091): warning: Register r10 already defined by the .DEF directive
E:\Projects\LN_SOLDER\firmware\Debug\List\lnsolder.asm(1092): warning: Register r11 already defined by the .DEF directive
E:\Projects\LN_SOLDER\firmware\Debug\List\lnsolder.asm(1093): warning: Register r12 already defined by the .DEF directive
E:\Projects\LN_SOLDER\firmware\Debug\List\lnsolder.asm(1094): warning: Register r13 already defined by the .DEF directive
E:\Projects\LN_SOLDER\firmware\Debug\List\lnsolder.asm(1095): warning: Register r6 already defined by the .DEF directive
                 
                 
                 ;CodeVisionAVR C Compiler V3.12 Advanced
                 ;(C) Copyright 1998-2014 Pavel Haiduc, HP InfoTech s.r.l.
                 ;http://www.hpinfotech.com
                 
                 ;Build configuration    : Debug
                 ;Chip type              : ATmega8
                 ;Program type           : Application
                 ;Clock frequency        : 8,000000 MHz
                 ;Memory model           : Small
                 ;Optimize for           : Size
                 ;(s)printf features     : int, width
                 ;(s)scanf features      : int, width
                 ;External RAM size      : 0
                 ;Data Stack size        : 256 byte(s)
                 ;Heap size              : 0 byte(s)
                 ;Promote 'char' to 'int': Yes
                 ;'char' is unsigned     : Yes
                 ;8 bit enums            : Yes
                 ;Global 'const' stored in FLASH: Yes
                 ;Enhanced function parameter passing: Yes
                 ;Enhanced core instructions: On
                 ;Automatic register allocation for global variables: On
                 ;Smart register allocation: On
                 
                 	#define _MODEL_SMALL_
                 
                 	#pragma AVRPART ADMIN PART_NAME ATmega8
                 	#pragma AVRPART MEMORY PROG_FLASH 8192
                 	#pragma AVRPART MEMORY EEPROM 512
                 	#pragma AVRPART MEMORY INT_SRAM SIZE 1024
                 	#pragma AVRPART MEMORY INT_SRAM START_ADDR 0x60
                 
                 	.LISTMAC
                 	.EQU UDRE=0x5
                 	.EQU RXC=0x7
                 	.EQU USR=0xB
                 	.EQU UDR=0xC
                 	.EQU SPSR=0xE
                 	.EQU SPDR=0xF
                 	.EQU EERE=0x0
                 	.EQU EEWE=0x1
                 	.EQU EEMWE=0x2
                 	.EQU EECR=0x1C
                 	.EQU EEDR=0x1D
                 	.EQU EEARL=0x1E
                 	.EQU EEARH=0x1F
                 	.EQU WDTCR=0x21
                 	.EQU MCUCR=0x35
                 	.EQU GICR=0x3B
                 	.EQU SPL=0x3D
                 	.EQU SPH=0x3E
                 	.EQU SREG=0x3F
                 
                 	.DEF R0X0=R0
                 	.DEF R0X1=R1
                 	.DEF R0X2=R2
                 	.DEF R0X3=R3
                 	.DEF R0X4=R4
                 	.DEF R0X5=R5
                 	.DEF R0X6=R6
                 	.DEF R0X7=R7
                 	.DEF R0X8=R8
                 	.DEF R0X9=R9
                 	.DEF R0XA=R10
                 	.DEF R0XB=R11
                 	.DEF R0XC=R12
                 	.DEF R0XD=R13
                 	.DEF R0XE=R14
                 	.DEF R0XF=R15
                 	.DEF R0X10=R16
                 	.DEF R0X11=R17
                 	.DEF R0X12=R18
                 	.DEF R0X13=R19
                 	.DEF R0X14=R20
                 	.DEF R0X15=R21
                 	.DEF R0X16=R22
                 	.DEF R0X17=R23
                 	.DEF R0X18=R24
                 	.DEF R0X19=R25
                 	.DEF R0X1A=R26
                 	.DEF R0X1B=R27
                 	.DEF R0X1C=R28
                 	.DEF R0X1D=R29
                 	.DEF R0X1E=R30
                 	.DEF R0X1F=R31
                 
                 	.EQU __SRAM_START=0x0060
                 	.EQU __SRAM_END=0x045F
                 	.EQU __DSTACK_SIZE=0x0100
                 	.EQU __HEAP_SIZE=0x0000
                 	.EQU __CLEAR_SRAM_SIZE=__SRAM_END-__SRAM_START+1
                 
                 	.MACRO __CPD1N
                 	CPI  R30,LOW(@0)
                 	LDI  R26,HIGH(@0)
                 	CPC  R31,R26
                 	LDI  R26,BYTE3(@0)
                 	CPC  R22,R26
                 	LDI  R26,BYTE4(@0)
                 	CPC  R23,R26
                 	.ENDM
                 
                 	.MACRO __CPD2N
                 	CPI  R26,LOW(@0)
                 	LDI  R30,HIGH(@0)
                 	CPC  R27,R30
                 	LDI  R30,BYTE3(@0)
                 	CPC  R24,R30
                 	LDI  R30,BYTE4(@0)
                 	CPC  R25,R30
                 	.ENDM
                 
                 	.MACRO __CPWRR
                 	CP   R@0,R@2
                 	CPC  R@1,R@3
                 	.ENDM
                 
                 	.MACRO __CPWRN
                 	CPI  R@0,LOW(@2)
                 	LDI  R30,HIGH(@2)
                 	CPC  R@1,R30
                 	.ENDM
                 
                 	.MACRO __ADDB1MN
                 	SUBI R30,LOW(-@0-(@1))
                 	.ENDM
                 
                 	.MACRO __ADDB2MN
                 	SUBI R26,LOW(-@0-(@1))
                 	.ENDM
                 
                 	.MACRO __ADDW1MN
                 	SUBI R30,LOW(-@0-(@1))
                 	SBCI R31,HIGH(-@0-(@1))
                 	.ENDM
                 
                 	.MACRO __ADDW2MN
                 	SUBI R26,LOW(-@0-(@1))
                 	SBCI R27,HIGH(-@0-(@1))
                 	.ENDM
                 
                 	.MACRO __ADDW1FN
                 	SUBI R30,LOW(-2*@0-(@1))
                 	SBCI R31,HIGH(-2*@0-(@1))
                 	.ENDM
                 
                 	.MACRO __ADDD1FN
                 	SUBI R30,LOW(-2*@0-(@1))
                 	SBCI R31,HIGH(-2*@0-(@1))
                 	SBCI R22,BYTE3(-2*@0-(@1))
                 	.ENDM
                 
                 	.MACRO __ADDD1N
                 	SUBI R30,LOW(-@0)
                 	SBCI R31,HIGH(-@0)
                 	SBCI R22,BYTE3(-@0)
                 	SBCI R23,BYTE4(-@0)
                 	.ENDM
                 
                 	.MACRO __ADDD2N
                 	SUBI R26,LOW(-@0)
                 	SBCI R27,HIGH(-@0)
                 	SBCI R24,BYTE3(-@0)
                 	SBCI R25,BYTE4(-@0)
                 	.ENDM
                 
                 	.MACRO __SUBD1N
                 	SUBI R30,LOW(@0)
                 	SBCI R31,HIGH(@0)
                 	SBCI R22,BYTE3(@0)
                 	SBCI R23,BYTE4(@0)
                 	.ENDM
                 
                 	.MACRO __SUBD2N
                 	SUBI R26,LOW(@0)
                 	SBCI R27,HIGH(@0)
                 	SBCI R24,BYTE3(@0)
                 	SBCI R25,BYTE4(@0)
                 	.ENDM
                 
                 	.MACRO __ANDBMNN
                 	LDS  R30,@0+(@1)
                 	ANDI R30,LOW(@2)
                 	STS  @0+(@1),R30
                 	.ENDM
                 
                 	.MACRO __ANDWMNN
                 	LDS  R30,@0+(@1)
                 	ANDI R30,LOW(@2)
                 	STS  @0+(@1),R30
                 	LDS  R30,@0+(@1)+1
                 	ANDI R30,HIGH(@2)
                 	STS  @0+(@1)+1,R30
                 	.ENDM
                 
                 	.MACRO __ANDD1N
                 	ANDI R30,LOW(@0)
                 	ANDI R31,HIGH(@0)
                 	ANDI R22,BYTE3(@0)
                 	ANDI R23,BYTE4(@0)
                 	.ENDM
                 
                 	.MACRO __ANDD2N
                 	ANDI R26,LOW(@0)
                 	ANDI R27,HIGH(@0)
                 	ANDI R24,BYTE3(@0)
                 	ANDI R25,BYTE4(@0)
                 	.ENDM
                 
                 	.MACRO __ORBMNN
                 	LDS  R30,@0+(@1)
                 	ORI  R30,LOW(@2)
                 	STS  @0+(@1),R30
                 	.ENDM
                 
                 	.MACRO __ORWMNN
                 	LDS  R30,@0+(@1)
                 	ORI  R30,LOW(@2)
                 	STS  @0+(@1),R30
                 	LDS  R30,@0+(@1)+1
                 	ORI  R30,HIGH(@2)
                 	STS  @0+(@1)+1,R30
                 	.ENDM
                 
                 	.MACRO __ORD1N
                 	ORI  R30,LOW(@0)
                 	ORI  R31,HIGH(@0)
                 	ORI  R22,BYTE3(@0)
                 	ORI  R23,BYTE4(@0)
                 	.ENDM
                 
                 	.MACRO __ORD2N
                 	ORI  R26,LOW(@0)
                 	ORI  R27,HIGH(@0)
                 	ORI  R24,BYTE3(@0)
                 	ORI  R25,BYTE4(@0)
                 	.ENDM
                 
                 	.MACRO __DELAY_USB
                 	LDI  R24,LOW(@0)
                 __DELAY_USB_LOOP:
                 	DEC  R24
                 	BRNE __DELAY_USB_LOOP
                 	.ENDM
                 
                 	.MACRO __DELAY_USW
                 	LDI  R24,LOW(@0)
                 	LDI  R25,HIGH(@0)
                 __DELAY_USW_LOOP:
                 	SBIW R24,1
                 	BRNE __DELAY_USW_LOOP
                 	.ENDM
                 
                 	.MACRO __GETD1S
                 	LDD  R30,Y+@0
                 	LDD  R31,Y+@0+1
                 	LDD  R22,Y+@0+2
                 	LDD  R23,Y+@0+3
                 	.ENDM
                 
                 	.MACRO __GETD2S
                 	LDD  R26,Y+@0
                 	LDD  R27,Y+@0+1
                 	LDD  R24,Y+@0+2
                 	LDD  R25,Y+@0+3
                 	.ENDM
                 
                 	.MACRO __PUTD1S
                 	STD  Y+@0,R30
                 	STD  Y+@0+1,R31
                 	STD  Y+@0+2,R22
                 	STD  Y+@0+3,R23
                 	.ENDM
                 
                 	.MACRO __PUTD2S
                 	STD  Y+@0,R26
                 	STD  Y+@0+1,R27
                 	STD  Y+@0+2,R24
                 	STD  Y+@0+3,R25
                 	.ENDM
                 
                 	.MACRO __PUTDZ2
                 	STD  Z+@0,R26
                 	STD  Z+@0+1,R27
                 	STD  Z+@0+2,R24
                 	STD  Z+@0+3,R25
                 	.ENDM
                 
                 	.MACRO __CLRD1S
                 	STD  Y+@0,R30
                 	STD  Y+@0+1,R30
                 	STD  Y+@0+2,R30
                 	STD  Y+@0+3,R30
                 	.ENDM
                 
                 	.MACRO __POINTB1MN
                 	LDI  R30,LOW(@0+(@1))
                 	.ENDM
                 
                 	.MACRO __POINTW1MN
                 	LDI  R30,LOW(@0+(@1))
                 	LDI  R31,HIGH(@0+(@1))
                 	.ENDM
                 
                 	.MACRO __POINTD1M
                 	LDI  R30,LOW(@0)
                 	LDI  R31,HIGH(@0)
                 	LDI  R22,BYTE3(@0)
                 	LDI  R23,BYTE4(@0)
                 	.ENDM
                 
                 	.MACRO __POINTW1FN
                 	LDI  R30,LOW(2*@0+(@1))
                 	LDI  R31,HIGH(2*@0+(@1))
                 	.ENDM
                 
                 	.MACRO __POINTD1FN
                 	LDI  R30,LOW(2*@0+(@1))
                 	LDI  R31,HIGH(2*@0+(@1))
                 	LDI  R22,BYTE3(2*@0+(@1))
                 	LDI  R23,BYTE4(2*@0+(@1))
                 	.ENDM
                 
                 	.MACRO __POINTB2MN
                 	LDI  R26,LOW(@0+(@1))
                 	.ENDM
                 
                 	.MACRO __POINTW2MN
                 	LDI  R26,LOW(@0+(@1))
                 	LDI  R27,HIGH(@0+(@1))
                 	.ENDM
                 
                 	.MACRO __POINTW2FN
                 	LDI  R26,LOW(2*@0+(@1))
                 	LDI  R27,HIGH(2*@0+(@1))
                 	.ENDM
                 
                 	.MACRO __POINTD2FN
                 	LDI  R26,LOW(2*@0+(@1))
                 	LDI  R27,HIGH(2*@0+(@1))
                 	LDI  R24,BYTE3(2*@0+(@1))
                 	LDI  R25,BYTE4(2*@0+(@1))
                 	.ENDM
                 
                 	.MACRO __POINTBRM
                 	LDI  R@0,LOW(@1)
                 	.ENDM
                 
                 	.MACRO __POINTWRM
                 	LDI  R@0,LOW(@2)
                 	LDI  R@1,HIGH(@2)
                 	.ENDM
                 
                 	.MACRO __POINTBRMN
                 	LDI  R@0,LOW(@1+(@2))
                 	.ENDM
                 
                 	.MACRO __POINTWRMN
                 	LDI  R@0,LOW(@2+(@3))
                 	LDI  R@1,HIGH(@2+(@3))
                 	.ENDM
                 
                 	.MACRO __POINTWRFN
                 	LDI  R@0,LOW(@2*2+(@3))
                 	LDI  R@1,HIGH(@2*2+(@3))
                 	.ENDM
                 
                 	.MACRO __GETD1N
                 	LDI  R30,LOW(@0)
                 	LDI  R31,HIGH(@0)
                 	LDI  R22,BYTE3(@0)
                 	LDI  R23,BYTE4(@0)
                 	.ENDM
                 
                 	.MACRO __GETD2N
                 	LDI  R26,LOW(@0)
                 	LDI  R27,HIGH(@0)
                 	LDI  R24,BYTE3(@0)
                 	LDI  R25,BYTE4(@0)
                 	.ENDM
                 
                 	.MACRO __GETB1MN
                 	LDS  R30,@0+(@1)
                 	.ENDM
                 
                 	.MACRO __GETB1HMN
                 	LDS  R31,@0+(@1)
                 	.ENDM
                 
                 	.MACRO __GETW1MN
                 	LDS  R30,@0+(@1)
                 	LDS  R31,@0+(@1)+1
                 	.ENDM
                 
                 	.MACRO __GETD1MN
                 	LDS  R30,@0+(@1)
                 	LDS  R31,@0+(@1)+1
                 	LDS  R22,@0+(@1)+2
                 	LDS  R23,@0+(@1)+3
                 	.ENDM
                 
                 	.MACRO __GETBRMN
                 	LDS  R@0,@1+(@2)
                 	.ENDM
                 
                 	.MACRO __GETWRMN
                 	LDS  R@0,@2+(@3)
                 	LDS  R@1,@2+(@3)+1
                 	.ENDM
                 
                 	.MACRO __GETWRZ
                 	LDD  R@0,Z+@2
                 	LDD  R@1,Z+@2+1
                 	.ENDM
                 
                 	.MACRO __GETD2Z
                 	LDD  R26,Z+@0
                 	LDD  R27,Z+@0+1
                 	LDD  R24,Z+@0+2
                 	LDD  R25,Z+@0+3
                 	.ENDM
                 
                 	.MACRO __GETB2MN
                 	LDS  R26,@0+(@1)
                 	.ENDM
                 
                 	.MACRO __GETW2MN
                 	LDS  R26,@0+(@1)
                 	LDS  R27,@0+(@1)+1
                 	.ENDM
                 
                 	.MACRO __GETD2MN
                 	LDS  R26,@0+(@1)
                 	LDS  R27,@0+(@1)+1
                 	LDS  R24,@0+(@1)+2
                 	LDS  R25,@0+(@1)+3
                 	.ENDM
                 
                 	.MACRO __PUTB1MN
                 	STS  @0+(@1),R30
                 	.ENDM
                 
                 	.MACRO __PUTW1MN
                 	STS  @0+(@1),R30
                 	STS  @0+(@1)+1,R31
                 	.ENDM
                 
                 	.MACRO __PUTD1MN
                 	STS  @0+(@1),R30
                 	STS  @0+(@1)+1,R31
                 	STS  @0+(@1)+2,R22
                 	STS  @0+(@1)+3,R23
                 	.ENDM
                 
                 	.MACRO __PUTB1EN
                 	LDI  R26,LOW(@0+(@1))
                 	LDI  R27,HIGH(@0+(@1))
                 	RCALL __EEPROMWRB
                 	.ENDM
                 
                 	.MACRO __PUTW1EN
                 	LDI  R26,LOW(@0+(@1))
                 	LDI  R27,HIGH(@0+(@1))
                 	RCALL __EEPROMWRW
                 	.ENDM
                 
                 	.MACRO __PUTD1EN
                 	LDI  R26,LOW(@0+(@1))
                 	LDI  R27,HIGH(@0+(@1))
                 	RCALL __EEPROMWRD
                 	.ENDM
                 
                 	.MACRO __PUTBR0MN
                 	STS  @0+(@1),R0
                 	.ENDM
                 
                 	.MACRO __PUTBMRN
                 	STS  @0+(@1),R@2
                 	.ENDM
                 
                 	.MACRO __PUTWMRN
                 	STS  @0+(@1),R@2
                 	STS  @0+(@1)+1,R@3
                 	.ENDM
                 
                 	.MACRO __PUTBZR
                 	STD  Z+@1,R@0
                 	.ENDM
                 
                 	.MACRO __PUTWZR
                 	STD  Z+@2,R@0
                 	STD  Z+@2+1,R@1
                 	.ENDM
                 
                 	.MACRO __GETW1R
                 	MOV  R30,R@0
                 	MOV  R31,R@1
                 	.ENDM
                 
                 	.MACRO __GETW2R
                 	MOV  R26,R@0
                 	MOV  R27,R@1
                 	.ENDM
                 
                 	.MACRO __GETWRN
                 	LDI  R@0,LOW(@2)
                 	LDI  R@1,HIGH(@2)
                 	.ENDM
                 
                 	.MACRO __PUTW1R
                 	MOV  R@0,R30
                 	MOV  R@1,R31
                 	.ENDM
                 
                 	.MACRO __PUTW2R
                 	MOV  R@0,R26
                 	MOV  R@1,R27
                 	.ENDM
                 
                 	.MACRO __ADDWRN
                 	SUBI R@0,LOW(-@2)
                 	SBCI R@1,HIGH(-@2)
                 	.ENDM
                 
                 	.MACRO __ADDWRR
                 	ADD  R@0,R@2
                 	ADC  R@1,R@3
                 	.ENDM
                 
                 	.MACRO __SUBWRN
                 	SUBI R@0,LOW(@2)
                 	SBCI R@1,HIGH(@2)
                 	.ENDM
                 
                 	.MACRO __SUBWRR
                 	SUB  R@0,R@2
                 	SBC  R@1,R@3
                 	.ENDM
                 
                 	.MACRO __ANDWRN
                 	ANDI R@0,LOW(@2)
                 	ANDI R@1,HIGH(@2)
                 	.ENDM
                 
                 	.MACRO __ANDWRR
                 	AND  R@0,R@2
                 	AND  R@1,R@3
                 	.ENDM
                 
                 	.MACRO __ORWRN
                 	ORI  R@0,LOW(@2)
                 	ORI  R@1,HIGH(@2)
                 	.ENDM
                 
                 	.MACRO __ORWRR
                 	OR   R@0,R@2
                 	OR   R@1,R@3
                 	.ENDM
                 
                 	.MACRO __EORWRR
                 	EOR  R@0,R@2
                 	EOR  R@1,R@3
                 	.ENDM
                 
                 	.MACRO __GETWRS
                 	LDD  R@0,Y+@2
                 	LDD  R@1,Y+@2+1
                 	.ENDM
                 
                 	.MACRO __PUTBSR
                 	STD  Y+@1,R@0
                 	.ENDM
                 
                 	.MACRO __PUTWSR
                 	STD  Y+@2,R@0
                 	STD  Y+@2+1,R@1
                 	.ENDM
                 
                 	.MACRO __MOVEWRR
                 	MOV  R@0,R@2
                 	MOV  R@1,R@3
                 	.ENDM
                 
                 	.MACRO __INWR
                 	IN   R@0,@2
                 	IN   R@1,@2+1
                 	.ENDM
                 
                 	.MACRO __OUTWR
                 	OUT  @2+1,R@1
                 	OUT  @2,R@0
                 	.ENDM
                 
                 	.MACRO __CALL1MN
                 	LDS  R30,@0+(@1)
                 	LDS  R31,@0+(@1)+1
                 	ICALL
                 	.ENDM
                 
                 	.MACRO __CALL1FN
                 	LDI  R30,LOW(2*@0+(@1))
                 	LDI  R31,HIGH(2*@0+(@1))
                 	RCALL __GETW1PF
                 	ICALL
                 	.ENDM
                 
                 	.MACRO __CALL2EN
                 	PUSH R26
                 	PUSH R27
                 	LDI  R26,LOW(@0+(@1))
                 	LDI  R27,HIGH(@0+(@1))
                 	RCALL __EEPROMRDW
                 	POP  R27
                 	POP  R26
                 	ICALL
                 	.ENDM
                 
                 	.MACRO __CALL2EX
                 	SUBI R26,LOW(-@0)
                 	SBCI R27,HIGH(-@0)
                 	RCALL __EEPROMRDD
                 	ICALL
                 	.ENDM
                 
                 	.MACRO __GETW1STACK
                 	IN   R30,SPL
                 	IN   R31,SPH
                 	ADIW R30,@0+1
                 	LD   R0,Z+
                 	LD   R31,Z
                 	MOV  R30,R0
                 	.ENDM
                 
                 	.MACRO __GETD1STACK
                 	IN   R30,SPL
                 	IN   R31,SPH
                 	ADIW R30,@0+1
                 	LD   R0,Z+
                 	LD   R1,Z+
                 	LD   R22,Z
                 	MOVW R30,R0
                 	.ENDM
                 
                 	.MACRO __NBST
                 	BST  R@0,@1
                 	IN   R30,SREG
                 	LDI  R31,0x40
                 	EOR  R30,R31
                 	OUT  SREG,R30
                 	.ENDM
                 
                 
                 	.MACRO __PUTB1SN
                 	LDD  R26,Y+@0
                 	LDD  R27,Y+@0+1
                 	SUBI R26,LOW(-@1)
                 	SBCI R27,HIGH(-@1)
                 	ST   X,R30
                 	.ENDM
                 
                 	.MACRO __PUTW1SN
                 	LDD  R26,Y+@0
                 	LDD  R27,Y+@0+1
                 	SUBI R26,LOW(-@1)
                 	SBCI R27,HIGH(-@1)
                 	ST   X+,R30
                 	ST   X,R31
                 	.ENDM
                 
                 	.MACRO __PUTD1SN
                 	LDD  R26,Y+@0
                 	LDD  R27,Y+@0+1
                 	SUBI R26,LOW(-@1)
                 	SBCI R27,HIGH(-@1)
                 	RCALL __PUTDP1
                 	.ENDM
                 
                 	.MACRO __PUTB1SNS
                 	LDD  R26,Y+@0
                 	LDD  R27,Y+@0+1
                 	ADIW R26,@1
                 	ST   X,R30
                 	.ENDM
                 
                 	.MACRO __PUTW1SNS
                 	LDD  R26,Y+@0
                 	LDD  R27,Y+@0+1
                 	ADIW R26,@1
                 	ST   X+,R30
                 	ST   X,R31
                 	.ENDM
                 
                 	.MACRO __PUTD1SNS
                 	LDD  R26,Y+@0
                 	LDD  R27,Y+@0+1
                 	ADIW R26,@1
                 	RCALL __PUTDP1
                 	.ENDM
                 
                 	.MACRO __PUTB1PMN
                 	LDS  R26,@0
                 	LDS  R27,@0+1
                 	SUBI R26,LOW(-@1)
                 	SBCI R27,HIGH(-@1)
                 	ST   X,R30
                 	.ENDM
                 
                 	.MACRO __PUTW1PMN
                 	LDS  R26,@0
                 	LDS  R27,@0+1
                 	SUBI R26,LOW(-@1)
                 	SBCI R27,HIGH(-@1)
                 	ST   X+,R30
                 	ST   X,R31
                 	.ENDM
                 
                 	.MACRO __PUTD1PMN
                 	LDS  R26,@0
                 	LDS  R27,@0+1
                 	SUBI R26,LOW(-@1)
                 	SBCI R27,HIGH(-@1)
                 	RCALL __PUTDP1
                 	.ENDM
                 
                 	.MACRO __PUTB1PMNS
                 	LDS  R26,@0
                 	LDS  R27,@0+1
                 	ADIW R26,@1
                 	ST   X,R30
                 	.ENDM
                 
                 	.MACRO __PUTW1PMNS
                 	LDS  R26,@0
                 	LDS  R27,@0+1
                 	ADIW R26,@1
                 	ST   X+,R30
                 	ST   X,R31
                 	.ENDM
                 
                 	.MACRO __PUTD1PMNS
                 	LDS  R26,@0
                 	LDS  R27,@0+1
                 	ADIW R26,@1
                 	RCALL __PUTDP1
                 	.ENDM
                 
                 	.MACRO __PUTB1RN
                 	MOVW R26,R@0
                 	SUBI R26,LOW(-@1)
                 	SBCI R27,HIGH(-@1)
                 	ST   X,R30
                 	.ENDM
                 
                 	.MACRO __PUTW1RN
                 	MOVW R26,R@0
                 	SUBI R26,LOW(-@1)
                 	SBCI R27,HIGH(-@1)
                 	ST   X+,R30
                 	ST   X,R31
                 	.ENDM
                 
                 	.MACRO __PUTD1RN
                 	MOVW R26,R@0
                 	SUBI R26,LOW(-@1)
                 	SBCI R27,HIGH(-@1)
                 	RCALL __PUTDP1
                 	.ENDM
                 
                 	.MACRO __PUTB1RNS
                 	MOVW R26,R@0
                 	ADIW R26,@1
                 	ST   X,R30
                 	.ENDM
                 
                 	.MACRO __PUTW1RNS
                 	MOVW R26,R@0
                 	ADIW R26,@1
                 	ST   X+,R30
                 	ST   X,R31
                 	.ENDM
                 
                 	.MACRO __PUTD1RNS
                 	MOVW R26,R@0
                 	ADIW R26,@1
                 	RCALL __PUTDP1
                 	.ENDM
                 
                 	.MACRO __PUTB1RON
                 	MOV  R26,R@0
                 	MOV  R27,R@1
                 	SUBI R26,LOW(-@2)
                 	SBCI R27,HIGH(-@2)
                 	ST   X,R30
                 	.ENDM
                 
                 	.MACRO __PUTW1RON
                 	MOV  R26,R@0
                 	MOV  R27,R@1
                 	SUBI R26,LOW(-@2)
                 	SBCI R27,HIGH(-@2)
                 	ST   X+,R30
                 	ST   X,R31
                 	.ENDM
                 
                 	.MACRO __PUTD1RON
                 	MOV  R26,R@0
                 	MOV  R27,R@1
                 	SUBI R26,LOW(-@2)
                 	SBCI R27,HIGH(-@2)
                 	RCALL __PUTDP1
                 	.ENDM
                 
                 	.MACRO __PUTB1RONS
                 	MOV  R26,R@0
                 	MOV  R27,R@1
                 	ADIW R26,@2
                 	ST   X,R30
                 	.ENDM
                 
                 	.MACRO __PUTW1RONS
                 	MOV  R26,R@0
                 	MOV  R27,R@1
                 	ADIW R26,@2
                 	ST   X+,R30
                 	ST   X,R31
                 	.ENDM
                 
                 	.MACRO __PUTD1RONS
                 	MOV  R26,R@0
                 	MOV  R27,R@1
                 	ADIW R26,@2
                 	RCALL __PUTDP1
                 	.ENDM
                 
                 
                 	.MACRO __GETB1SX
                 	MOVW R30,R28
                 	SUBI R30,LOW(-@0)
                 	SBCI R31,HIGH(-@0)
                 	LD   R30,Z
                 	.ENDM
                 
                 	.MACRO __GETB1HSX
                 	MOVW R30,R28
                 	SUBI R30,LOW(-@0)
                 	SBCI R31,HIGH(-@0)
                 	LD   R31,Z
                 	.ENDM
                 
                 	.MACRO __GETW1SX
                 	MOVW R30,R28
                 	SUBI R30,LOW(-@0)
                 	SBCI R31,HIGH(-@0)
                 	LD   R0,Z+
                 	LD   R31,Z
                 	MOV  R30,R0
                 	.ENDM
                 
                 	.MACRO __GETD1SX
                 	MOVW R30,R28
                 	SUBI R30,LOW(-@0)
                 	SBCI R31,HIGH(-@0)
                 	LD   R0,Z+
                 	LD   R1,Z+
                 	LD   R22,Z+
                 	LD   R23,Z
                 	MOVW R30,R0
                 	.ENDM
                 
                 	.MACRO __GETB2SX
                 	MOVW R26,R28
                 	SUBI R26,LOW(-@0)
                 	SBCI R27,HIGH(-@0)
                 	LD   R26,X
                 	.ENDM
                 
                 	.MACRO __GETW2SX
                 	MOVW R26,R28
                 	SUBI R26,LOW(-@0)
                 	SBCI R27,HIGH(-@0)
                 	LD   R0,X+
                 	LD   R27,X
                 	MOV  R26,R0
                 	.ENDM
                 
                 	.MACRO __GETD2SX
                 	MOVW R26,R28
                 	SUBI R26,LOW(-@0)
                 	SBCI R27,HIGH(-@0)
                 	LD   R0,X+
                 	LD   R1,X+
                 	LD   R24,X+
                 	LD   R25,X
                 	MOVW R26,R0
                 	.ENDM
                 
                 	.MACRO __GETBRSX
                 	MOVW R30,R28
                 	SUBI R30,LOW(-@1)
                 	SBCI R31,HIGH(-@1)
                 	LD   R@0,Z
                 	.ENDM
                 
                 	.MACRO __GETWRSX
                 	MOVW R30,R28
                 	SUBI R30,LOW(-@2)
                 	SBCI R31,HIGH(-@2)
                 	LD   R@0,Z+
                 	LD   R@1,Z
                 	.ENDM
                 
                 	.MACRO __GETBRSX2
                 	MOVW R26,R28
                 	SUBI R26,LOW(-@1)
                 	SBCI R27,HIGH(-@1)
                 	LD   R@0,X
                 	.ENDM
                 
                 	.MACRO __GETWRSX2
                 	MOVW R26,R28
                 	SUBI R26,LOW(-@2)
                 	SBCI R27,HIGH(-@2)
                 	LD   R@0,X+
                 	LD   R@1,X
                 	.ENDM
                 
                 	.MACRO __LSLW8SX
                 	MOVW R30,R28
                 	SUBI R30,LOW(-@0)
                 	SBCI R31,HIGH(-@0)
                 	LD   R31,Z
                 	CLR  R30
                 	.ENDM
                 
                 	.MACRO __PUTB1SX
                 	MOVW R26,R28
                 	SUBI R26,LOW(-@0)
                 	SBCI R27,HIGH(-@0)
                 	ST   X,R30
                 	.ENDM
                 
                 	.MACRO __PUTW1SX
                 	MOVW R26,R28
                 	SUBI R26,LOW(-@0)
                 	SBCI R27,HIGH(-@0)
                 	ST   X+,R30
                 	ST   X,R31
                 	.ENDM
                 
                 	.MACRO __PUTD1SX
                 	MOVW R26,R28
                 	SUBI R26,LOW(-@0)
                 	SBCI R27,HIGH(-@0)
                 	ST   X+,R30
                 	ST   X+,R31
                 	ST   X+,R22
                 	ST   X,R23
                 	.ENDM
                 
                 	.MACRO __CLRW1SX
                 	MOVW R26,R28
                 	SUBI R26,LOW(-@0)
                 	SBCI R27,HIGH(-@0)
                 	ST   X+,R30
                 	ST   X,R30
                 	.ENDM
                 
                 	.MACRO __CLRD1SX
                 	MOVW R26,R28
                 	SUBI R26,LOW(-@0)
                 	SBCI R27,HIGH(-@0)
                 	ST   X+,R30
                 	ST   X+,R30
                 	ST   X+,R30
                 	ST   X,R30
                 	.ENDM
                 
                 	.MACRO __PUTB2SX
                 	MOVW R30,R28
                 	SUBI R30,LOW(-@0)
                 	SBCI R31,HIGH(-@0)
                 	ST   Z,R26
                 	.ENDM
                 
                 	.MACRO __PUTW2SX
                 	MOVW R30,R28
                 	SUBI R30,LOW(-@0)
                 	SBCI R31,HIGH(-@0)
                 	ST   Z+,R26
                 	ST   Z,R27
                 	.ENDM
                 
                 	.MACRO __PUTD2SX
                 	MOVW R30,R28
                 	SUBI R30,LOW(-@0)
                 	SBCI R31,HIGH(-@0)
                 	ST   Z+,R26
                 	ST   Z+,R27
                 	ST   Z+,R24
                 	ST   Z,R25
                 	.ENDM
                 
                 	.MACRO __PUTBSRX
                 	MOVW R30,R28
                 	SUBI R30,LOW(-@1)
                 	SBCI R31,HIGH(-@1)
                 	ST   Z,R@0
                 	.ENDM
                 
                 	.MACRO __PUTWSRX
                 	MOVW R30,R28
                 	SUBI R30,LOW(-@2)
                 	SBCI R31,HIGH(-@2)
                 	ST   Z+,R@0
                 	ST   Z,R@1
                 	.ENDM
                 
                 	.MACRO __PUTB1SNX
                 	MOVW R26,R28
                 	SUBI R26,LOW(-@0)
                 	SBCI R27,HIGH(-@0)
                 	LD   R0,X+
                 	LD   R27,X
                 	MOV  R26,R0
                 	SUBI R26,LOW(-@1)
                 	SBCI R27,HIGH(-@1)
                 	ST   X,R30
                 	.ENDM
                 
                 	.MACRO __PUTW1SNX
                 	MOVW R26,R28
                 	SUBI R26,LOW(-@0)
                 	SBCI R27,HIGH(-@0)
                 	LD   R0,X+
                 	LD   R27,X
                 	MOV  R26,R0
                 	SUBI R26,LOW(-@1)
                 	SBCI R27,HIGH(-@1)
                 	ST   X+,R30
                 	ST   X,R31
                 	.ENDM
                 
                 	.MACRO __PUTD1SNX
                 	MOVW R26,R28
                 	SUBI R26,LOW(-@0)
                 	SBCI R27,HIGH(-@0)
                 	LD   R0,X+
                 	LD   R27,X
                 	MOV  R26,R0
                 	SUBI R26,LOW(-@1)
                 	SBCI R27,HIGH(-@1)
                 	ST   X+,R30
                 	ST   X+,R31
                 	ST   X+,R22
                 	ST   X,R23
                 	.ENDM
                 
                 	.MACRO __MULBRR
                 	MULS R@0,R@1
                 	MOVW R30,R0
                 	.ENDM
                 
                 	.MACRO __MULBRRU
                 	MUL  R@0,R@1
                 	MOVW R30,R0
                 	.ENDM
                 
                 	.MACRO __MULBRR0
                 	MULS R@0,R@1
                 	.ENDM
                 
                 	.MACRO __MULBRRU0
                 	MUL  R@0,R@1
                 	.ENDM
                 
                 	.MACRO __MULBNWRU
                 	LDI  R26,@2
                 	MUL  R26,R@0
                 	MOVW R30,R0
                 	MUL  R26,R@1
                 	ADD  R31,R0
                 	.ENDM
                 
                 ;NAME DEFINITIONS FOR GLOBAL VARIABLES ALLOCATED TO REGISTERS
                 	.DEF _rot=R4
                 	.DEF _rot_msb=R5
                 	.DEF _RS_old=R7
                 	.DEF _solder_cur=R8
                 	.DEF _solder_cur_msb=R9
                 	.DEF _air_cur=R10
                 	.DEF _air_cur_msb=R11
                 	.DEF _solder_set=R12
                 	.DEF _solder_set_msb=R13
                 	.DEF _sys_tmr=R6
                 
                 	.CSEG
                 	.ORG 0x00
                 
                 ;START OF CODE MARKER
                 __START_OF_CODE:
                 
                 ;INTERRUPT VECTORS
000000 c2c3      	RJMP __RESET
000001 cffe      	RJMP 0x00
000002 cffd      	RJMP 0x00
000003 cffc      	RJMP 0x00
000004 cffb      	RJMP 0x00
000005 cffa      	RJMP 0x00
000006 cff9      	RJMP 0x00
000007 cff8      	RJMP 0x00
000008 cff7      	RJMP 0x00
000009 c619      	RJMP _timer0_ovf_isr
00000a cff5      	RJMP 0x00
00000b cff4      	RJMP 0x00
00000c cff3      	RJMP 0x00
00000d cff2      	RJMP 0x00
00000e cff1      	RJMP 0x00
00000f cff0      	RJMP 0x00
000010 cfef      	RJMP 0x00
000011 cfee      	RJMP 0x00
000012 cfed      	RJMP 0x00
                 
                 _solder_img:
000013 0000
000014 0100
000015 0000
000016 0a00      	.DB  0x0,0x0,0x0,0x1,0x0,0x0,0x0,0xA
000017 0000
000018 1c00
000019 0000
00001a 3e00      	.DB  0x0,0x0,0x0,0x1C,0x0,0x0,0x0,0x3E
00001b 0000
00001c 7c00
00001d 0000
00001e f800      	.DB  0x0,0x0,0x0,0x7C,0x0,0x0,0x0,0xF8
00001f 0000
000020 f001
000021 0000
000022 e003      	.DB  0x0,0x0,0x1,0xF0,0x0,0x0,0x3,0xE0
000023 0000
000024 c007
000025 0000
000026 800f      	.DB  0x0,0x0,0x7,0xC0,0x0,0x0,0xF,0x80
000027 0000
000028 007f
000029 0000
00002a 00be      	.DB  0x0,0x0,0x7F,0x0,0x0,0x0,0xBE,0x0
00002b 0100
00002c 007c
00002d 0100
00002e 00fc      	.DB  0x0,0x1,0x7C,0x0,0x0,0x1,0xFC,0x0
00002f 0100
000030 00f4
000031 0200
000032 00e8      	.DB  0x0,0x1,0xF4,0x0,0x0,0x2,0xE8,0x0
000033 0400
000034 0070
000035 0800
000036 0080      	.DB  0x0,0x4,0x70,0x0,0x0,0x8,0x80,0x0
000037 1100
000038 0000
000039 2200
00003a 0000      	.DB  0x0,0x11,0x0,0x0,0x0,0x22,0x0,0x0
00003b 4400
00003c 0000
00003d 8800
00003e 0000      	.DB  0x0,0x44,0x0,0x0,0x0,0x88,0x0,0x0
00003f 1001
000040 0000
000041 2002
000042 0000      	.DB  0x1,0x10,0x0,0x0,0x2,0x20,0x0,0x0
000043 4004
000044 0000
000045 8008
000046 0000      	.DB  0x4,0x40,0x0,0x0,0x8,0x80,0x0,0x0
000047 0011
000048 0000
000049 000a
00004a 0000      	.DB  0x11,0x0,0x0,0x0,0xA,0x0,0x0,0x0
00004b 0014
00004c 0000
00004d 0020
00004e 0000      	.DB  0x14,0x0,0x0,0x0,0x20,0x0,0x0,0x0
00004f 0040
000050 0000
000051 0000
000052 0000      	.DB  0x40,0x0,0x0,0x0,0x0,0x0,0x0,0x0
                 _fan_img:
000053 0300
000054 00f0
000055 0700
000056 00fc      	.DB  0x0,0x3,0xF0,0x0,0x0,0x7,0xFC,0x0
000057 0f00
000058 00fe
000059 1f00
00005a 00fe      	.DB  0x0,0xF,0xFE,0x0,0x0,0x1F,0xFE,0x0
00005b 1f00
00005c 00fe
00005d 1f00
00005e 00fe      	.DB  0x0,0x1F,0xFE,0x0,0x0,0x1F,0xFE,0x0
00005f 1f00
000060 00fc
000061 1f00
000062 00f8      	.DB  0x0,0x1F,0xFC,0x0,0x0,0x1F,0xF8,0x0
000063 1f00
000064 00f0
000065 0f3c
000066 00e0      	.DB  0x0,0x1F,0xF0,0x0,0x3C,0xF,0xE0,0x0
000067 0f7e
000068 00e0
000069 077f
00006a f8c1      	.DB  0x7E,0xF,0xE0,0x0,0x7F,0x7,0xC1,0xF8
00006b 84ff
00006c fc27
00006d e8ff
00006e fe1f      	.DB  0xFF,0x84,0x27,0xFC,0xFF,0xE8,0x1F,0xFE
00006f f1ff
000070 ff8f
000071 f3ff
000072 ffcf      	.DB  0xFF,0xF1,0x8F,0xFF,0xFF,0xF3,0xCF,0xFF
000073 f3ff
000074 ffcf
000075 f1ff
000076 ff8f      	.DB  0xFF,0xF3,0xCF,0xFF,0xFF,0xF1,0x8F,0xFF
000077 f87f
000078 ff17
000079 e43f
00007a ff21      	.DB  0x7F,0xF8,0x17,0xFF,0x3F,0xE4,0x21,0xFF
00007b 831f
00007c fee0
00007d 0700
00007e 7ef0      	.DB  0x1F,0x83,0xE0,0xFE,0x0,0x7,0xF0,0x7E
00007f 0700
000080 3cf0
000081 0f00
000082 00f8      	.DB  0x0,0x7,0xF0,0x3C,0x0,0xF,0xF8,0x0
000083 1f00
000084 00f8
000085 3f00
000086 00f8      	.DB  0x0,0x1F,0xF8,0x0,0x0,0x3F,0xF8,0x0
000087 7f00
000088 00f8
000089 7f00
00008a 00f8      	.DB  0x0,0x7F,0xF8,0x0,0x0,0x7F,0xF8,0x0
00008b 7f00
00008c 00f8
00008d 7f00
00008e 00f0      	.DB  0x0,0x7F,0xF8,0x0,0x0,0x7F,0xF0,0x0
00008f 3f00
000090 00e0
000091 0f00
000092 00c0      	.DB  0x0,0x3F,0xE0,0x0,0x0,0xF,0xC0,0x0
                 _hotair_img:
000093 0000
000094 0000
000095 0000
000096 0000      	.DB  0x0,0x0,0x0,0x0,0x0,0x0,0x0,0x0
000097 0000
000098 0000
000099 0000
00009a 0000      	.DB  0x0,0x0,0x0,0x0,0x0,0x0,0x0,0x0
00009b f007
00009c 0000
00009d ff1f
00009e 00f0      	.DB  0x7,0xF0,0x0,0x0,0x1F,0xFF,0xF0,0x0
00009f ff1f
0000a0 00fe
0000a1 3f38
0000a2 fefe      	.DB  0x1F,0xFF,0xFE,0x0,0x38,0x3F,0xFE,0xFE
0000a3 3f38
0000a4 00fe
0000a5 3f78
0000a6 fefe      	.DB  0x38,0x3F,0xFE,0x0,0x78,0x3F,0xFE,0xFE
0000a7 3f78
0000a8 00fe
0000a9 3f38
0000aa fefe      	.DB  0x78,0x3F,0xFE,0x0,0x38,0x3F,0xFE,0xFE
0000ab 3f38
0000ac 00fe
0000ad ff1f
0000ae 00f8      	.DB  0x38,0x3F,0xFE,0x0,0x1F,0xFF,0xF8,0x0
0000af ff1f
0000b0 00c0
0000b1 fe07
0000b2 0000      	.DB  0x1F,0xFF,0xC0,0x0,0x7,0xFE,0x0,0x0
0000b3 f007
0000b4 0000
0000b5 f007
0000b6 0000      	.DB  0x7,0xF0,0x0,0x0,0x7,0xF0,0x0,0x0
0000b7 f007
0000b8 0000
0000b9 f007
0000ba 0000      	.DB  0x7,0xF0,0x0,0x0,0x7,0xF0,0x0,0x0
0000bb f007
0000bc 0000
0000bd f007
0000be 0000      	.DB  0x7,0xF0,0x0,0x0,0x7,0xF0,0x0,0x0
0000bf f007
0000c0 0000
0000c1 f007
0000c2 0000      	.DB  0x7,0xF0,0x0,0x0,0x7,0xF0,0x0,0x0
0000c3 f007
0000c4 0000
0000c5 f007
0000c6 0000      	.DB  0x7,0xF0,0x0,0x0,0x7,0xF0,0x0,0x0
0000c7 f007
0000c8 0000
0000c9 0000
0000ca 0000      	.DB  0x7,0xF0,0x0,0x0,0x0,0x0,0x0,0x0
0000cb 0000
0000cc 0000
0000cd 0000
0000ce 0000      	.DB  0x0,0x0,0x0,0x0,0x0,0x0,0x0,0x0
0000cf 0000
0000d0 0000
0000d1 0000
0000d2 0000      	.DB  0x0,0x0,0x0,0x0,0x0,0x0,0x0,0x0
                 _font_5x8:
0000d3 0000
0000d4 0000
0000d5 0000
0000d6 5f00      	.DB  0x0,0x0,0x0,0x0,0x0,0x0,0x0,0x5F
0000d7 0000
0000d8 0700
0000d9 0700
0000da 1400      	.DB  0x0,0x0,0x0,0x7,0x0,0x7,0x0,0x14
0000db 147f
0000dc 147f
0000dd 2a24
0000de 2a7f      	.DB  0x7F,0x14,0x7F,0x14,0x24,0x2A,0x7F,0x2A
0000df 2312
0000e0 0813
0000e1 6264
0000e2 4936      	.DB  0x12,0x23,0x13,0x8,0x64,0x62,0x36,0x49
0000e3 2255
0000e4 0050
0000e5 0305
0000e6 0000      	.DB  0x55,0x22,0x50,0x0,0x5,0x3,0x0,0x0
0000e7 1c00
0000e8 4122
0000e9 0000
0000ea 2241      	.DB  0x0,0x1C,0x22,0x41,0x0,0x0,0x41,0x22
0000eb 001c
0000ec 2a08
0000ed 2a1c
0000ee 0808      	.DB  0x1C,0x0,0x8,0x2A,0x1C,0x2A,0x8,0x8
0000ef 3e08
0000f0 0808
0000f1 5000
0000f2 0030      	.DB  0x8,0x3E,0x8,0x8,0x0,0x50,0x30,0x0
0000f3 0800
0000f4 0808
0000f5 0808
0000f6 3000      	.DB  0x0,0x8,0x8,0x8,0x8,0x8,0x0,0x30
0000f7 0030
0000f8 2000
0000f9 0810
0000fa 0204      	.DB  0x30,0x0,0x0,0x20,0x10,0x8,0x4,0x2
0000fb 513e
0000fc 4549
0000fd 003e
0000fe 7f42      	.DB  0x3E,0x51,0x49,0x45,0x3E,0x0,0x42,0x7F
0000ff 0040
000100 6142
000101 4951
000102 2146      	.DB  0x40,0x0,0x42,0x61,0x51,0x49,0x46,0x21
000103 4541
000104 314b
000105 1418
000106 7f12      	.DB  0x41,0x45,0x4B,0x31,0x18,0x14,0x12,0x7F
000107 2710
000108 4545
000109 3945
00010a 4a3c      	.DB  0x10,0x27,0x45,0x45,0x45,0x39,0x3C,0x4A
00010b 4949
00010c 0130
00010d 0971
00010e 0305      	.DB  0x49,0x49,0x30,0x1,0x71,0x9,0x5,0x3
00010f 4936
000110 4949
000111 0636
000112 4949      	.DB  0x36,0x49,0x49,0x49,0x36,0x6,0x49,0x49
000113 1e29
000114 3600
000115 0036
000116 0000      	.DB  0x29,0x1E,0x0,0x36,0x36,0x0,0x0,0x0
000117 3656
000118 0000
000119 0800
00011a 2214      	.DB  0x56,0x36,0x0,0x0,0x0,0x8,0x14,0x22
00011b 1441
00011c 1414
00011d 1414
00011e 2241      	.DB  0x41,0x14,0x14,0x14,0x14,0x14,0x41,0x22
00011f 0814
000120 0200
000121 5101
000122 0609      	.DB  0x14,0x8,0x0,0x2,0x1,0x51,0x9,0x6
000123 4932
000124 4179
000125 7e3e
000126 1111      	.DB  0x32,0x49,0x79,0x41,0x3E,0x7E,0x11,0x11
000127 7e11
000128 497f
000129 4949
00012a 3e36      	.DB  0x11,0x7E,0x7F,0x49,0x49,0x49,0x36,0x3E
00012b 4141
00012c 2241
00012d 417f
00012e 2241      	.DB  0x41,0x41,0x41,0x22,0x7F,0x41,0x41,0x22
00012f 7f1c
000130 4949
000131 4149
000132 097f      	.DB  0x1C,0x7F,0x49,0x49,0x49,0x41,0x7F,0x9
000133 0109
000134 3e01
000135 4141
000136 3251      	.DB  0x9,0x1,0x1,0x3E,0x41,0x41,0x51,0x32
000137 087f
000138 0808
000139 007f
00013a 7f41      	.DB  0x7F,0x8,0x8,0x8,0x7F,0x0,0x41,0x7F
00013b 0041
00013c 4020
00013d 3f41
00013e 7f01      	.DB  0x41,0x0,0x20,0x40,0x41,0x3F,0x1,0x7F
00013f 1408
000140 4122
000141 407f
000142 4040      	.DB  0x8,0x14,0x22,0x41,0x7F,0x40,0x40,0x40
000143 7f40
000144 0402
000145 7f02
000146 047f      	.DB  0x40,0x7F,0x2,0x4,0x2,0x7F,0x7F,0x4
000147 1008
000148 3e7f
000149 4141
00014a 3e41      	.DB  0x8,0x10,0x7F,0x3E,0x41,0x41,0x41,0x3E
00014b 097f
00014c 0909
00014d 3e06
00014e 5141      	.DB  0x7F,0x9,0x9,0x9,0x6,0x3E,0x41,0x51
00014f 5e21
000150 097f
000151 2919
000152 4646      	.DB  0x21,0x5E,0x7F,0x9,0x19,0x29,0x46,0x46
000153 4949
000154 3149
000155 0101
000156 017f      	.DB  0x49,0x49,0x49,0x31,0x1,0x1,0x7F,0x1
000157 3f01
000158 4040
000159 3f40
00015a 201f      	.DB  0x1,0x3F,0x40,0x40,0x40,0x3F,0x1F,0x20
00015b 2040
00015c 7f1f
00015d 1820
00015e 7f20      	.DB  0x40,0x20,0x1F,0x7F,0x20,0x18,0x20,0x7F
00015f 1463
000160 1408
000161 0363
000162 7804      	.DB  0x63,0x14,0x8,0x14,0x63,0x3,0x4,0x78
000163 0304
000164 5161
000165 4549
000166 0043      	.DB  0x4,0x3,0x61,0x51,0x49,0x45,0x43,0x0
000167 7f00
000168 4141
000169 0402
00016a 1008      	.DB  0x0,0x7F,0x41,0x41,0x2,0x4,0x8,0x10
00016b 4120
00016c 7f41
00016d 0000
00016e 0204      	.DB  0x20,0x41,0x41,0x7F,0x0,0x0,0x4,0x2
00016f 0201
000170 4004
000171 4040
000172 4040      	.DB  0x1,0x2,0x4,0x40,0x40,0x40,0x40,0x40
000173 0100
000174 0402
000175 2000
000176 5454      	.DB  0x0,0x1,0x2,0x4,0x0,0x20,0x54,0x54
000177 7854
000178 487f
000179 4444
00017a 3838      	.DB  0x54,0x78,0x7F,0x48,0x44,0x44,0x38,0x38
00017b 4444
00017c 2044
00017d 4438
00017e 4844      	.DB  0x44,0x44,0x44,0x20,0x38,0x44,0x44,0x48
00017f 387f
000180 5454
000181 1854
000182 7e08      	.DB  0x7F,0x38,0x54,0x54,0x54,0x18,0x8,0x7E
000183 0109
000184 0802
000185 5414
000186 3c54      	.DB  0x9,0x1,0x2,0x8,0x14,0x54,0x54,0x3C
000187 087f
000188 0404
000189 0078
00018a 7d44      	.DB  0x7F,0x8,0x4,0x4,0x78,0x0,0x44,0x7D
00018b 0040
00018c 4020
00018d 3d44
00018e 0000      	.DB  0x40,0x0,0x20,0x40,0x44,0x3D,0x0,0x0
00018f 107f
000190 4428
000191 4100
000192 407f      	.DB  0x7F,0x10,0x28,0x44,0x0,0x41,0x7F,0x40
000193 7c00
000194 1804
000195 7804
000196 087c      	.DB  0x0,0x7C,0x4,0x18,0x4,0x78,0x7C,0x8
000197 0404
000198 3878
000199 4444
00019a 3844      	.DB  0x4,0x4,0x78,0x38,0x44,0x44,0x44,0x38
00019b 147c
00019c 1414
00019d 0808
00019e 1414      	.DB  0x7C,0x14,0x14,0x14,0x8,0x8,0x14,0x14
00019f 7c18
0001a0 087c
0001a1 0404
0001a2 4808      	.DB  0x18,0x7C,0x7C,0x8,0x4,0x4,0x8,0x48
0001a3 5454
0001a4 2054
0001a5 3f04
0001a6 4044      	.DB  0x54,0x54,0x54,0x20,0x4,0x3F,0x44,0x40
0001a7 3c20
0001a8 4040
0001a9 7c20
0001aa 201c      	.DB  0x20,0x3C,0x40,0x40,0x20,0x7C,0x1C,0x20
0001ab 2040
0001ac 3c1c
0001ad 3040
0001ae 3c40      	.DB  0x40,0x20,0x1C,0x3C,0x40,0x30,0x40,0x3C
0001af 2844
0001b0 2810
0001b1 0c44
0001b2 5050      	.DB  0x44,0x28,0x10,0x28,0x44,0xC,0x50,0x50
0001b3 3c50
0001b4 6444
0001b5 4c54
0001b6 0044      	.DB  0x50,0x3C,0x44,0x64,0x54,0x4C,0x44,0x0
0001b7 3608
0001b8 0041
0001b9 0000
0001ba 007f      	.DB  0x8,0x36,0x41,0x0,0x0,0x0,0x7F,0x0
0001bb 0000
0001bc 3641
0001bd 0008
0001be 0000      	.DB  0x0,0x0,0x41,0x36,0x8,0x0,0x0,0x0
0001bf 0000
0001c0 0000
0001c1 0000
0001c2 0000      	.DB  0x0,0x0,0x0,0x0,0x0,0x0,0x0,0x0
0001c3 117e
0001c4 1111
0001c5 7f7e
0001c6 4545      	.DB  0x7E,0x11,0x11,0x11,0x7E,0x7F,0x45,0x45
0001c7 3945
0001c8 497f
0001c9 4949
0001ca 7f36      	.DB  0x45,0x39,0x7F,0x49,0x49,0x49,0x36,0x7F
0001cb 0101
0001cc 0301
0001cd 7ec0
0001ce 7f41      	.DB  0x1,0x1,0x1,0x3,0xC0,0x7E,0x41,0x7F
0001cf 7fc0
0001d0 4949
0001d1 4149
0001d2 0877      	.DB  0xC0,0x7F,0x49,0x49,0x49,0x41,0x77,0x8
0001d3 087f
0001d4 2277
0001d5 4949
0001d6 3649      	.DB  0x7F,0x8,0x77,0x22,0x49,0x49,0x49,0x36
0001d7 207f
0001d8 0810
0001d9 7f7f
0001da 1320      	.DB  0x7F,0x20,0x10,0x8,0x7F,0x7F,0x20,0x13
0001db 7f08
0001dc 087f
0001dd 2214
0001de 4041      	.DB  0x8,0x7F,0x7F,0x8,0x14,0x22,0x41,0x40
0001df 013e
0001e0 7f01
0001e1 027f
0001e2 0204      	.DB  0x3E,0x1,0x1,0x7F,0x7F,0x2,0x4,0x2
0001e3 7f7f
0001e4 0808
0001e5 7f08
0001e6 413e      	.DB  0x7F,0x7F,0x8,0x8,0x8,0x7F,0x3E,0x41
0001e7 4141
0001e8 7f3e
0001e9 0101
0001ea 7f01      	.DB  0x41,0x41,0x3E,0x7F,0x1,0x1,0x1,0x7F
0001eb 097f
0001ec 0909
0001ed 3e06
0001ee 4141      	.DB  0x7F,0x9,0x9,0x9,0x6,0x3E,0x41,0x41
0001ef 2241
0001f0 0101
0001f1 017f
0001f2 2701      	.DB  0x41,0x22,0x1,0x1,0x7F,0x1,0x1,0x27
0001f3 4848
0001f4 3f48
0001f5 211e
0001f6 217f      	.DB  0x48,0x48,0x48,0x3F,0x1E,0x21,0x7F,0x21
0001f7 631e
0001f8 0814
0001f9 6314
0001fa 407f      	.DB  0x1E,0x63,0x14,0x8,0x14,0x63,0x7F,0x40
0001fb 7f40
0001fc 0fc0
0001fd 1010
0001fe 7f10      	.DB  0x40,0x7F,0xC0,0xF,0x10,0x10,0x10,0x7F
0001ff 407f
000200 407c
000201 7f7f
000202 7c40      	.DB  0x7F,0x40,0x7C,0x40,0x7F,0x7F,0x40,0x7C
000203 ff40
000204 7f01
000205 4848
000206 7f30      	.DB  0x40,0xFF,0x1,0x7F,0x48,0x48,0x30,0x7F
000207 3048
000208 7f00
000209 487f
00020a 4848      	.DB  0x48,0x30,0x0,0x7F,0x7F,0x48,0x48,0x48
00020b 2230
00020c 4949
00020d 3e49
00020e 087f      	.DB  0x30,0x22,0x49,0x49,0x49,0x3E,0x7F,0x8
00020f 413e
000210 763e
000211 0909
000212 7f09      	.DB  0x3E,0x41,0x3E,0x76,0x9,0x9,0x9,0x7F
000213 5420
000214 5454
000215 7c78
000216 5454      	.DB  0x20,0x54,0x54,0x54,0x78,0x7C,0x54,0x54
000217 2454
000218 547c
000219 5454
00021a 7c28      	.DB  0x54,0x24,0x7C,0x54,0x54,0x54,0x28,0x7C
00021b 0404
00021c 0c04
00021d 78c0
00021e 7c44      	.DB  0x4,0x4,0x4,0xC,0xC0,0x78,0x44,0x7C
00021f 38c0
000220 5454
000221 1854
000222 106c      	.DB  0xC0,0x38,0x54,0x54,0x54,0x18,0x6C,0x10
000223 107c
000224 286c
000225 5444
000226 2854      	.DB  0x7C,0x10,0x6C,0x28,0x44,0x54,0x54,0x28
000227 207c
000228 0810
000229 7c7c
00022a 1221      	.DB  0x7C,0x20,0x10,0x8,0x7C,0x7C,0x21,0x12
00022b 7c08
00022c 107c
00022d 2810
00022e 4044      	.DB  0x8,0x7C,0x7C,0x10,0x10,0x28,0x44,0x40
00022f 0438
000230 7c04
000231 087c
000232 0810      	.DB  0x38,0x4,0x4,0x7C,0x7C,0x8,0x10,0x8
000233 7c7c
000234 1010
000235 7c10
000236 4438      	.DB  0x7C,0x7C,0x10,0x10,0x10,0x7C,0x38,0x44
000237 4444
000238 7c38
000239 0404
00023a 7c04      	.DB  0x44,0x44,0x38,0x7C,0x4,0x4,0x4,0x7C
00023b 147c
00023c 1414
00023d 3808
00023e 4444      	.DB  0x7C,0x14,0x14,0x14,0x8,0x38,0x44,0x44
00023f 2044
000240 0404
000241 047c
000242 0c04      	.DB  0x44,0x20,0x4,0x4,0x7C,0x4,0x4,0xC
000243 5050
000244 3c50
000245 2418
000246 247c      	.DB  0x50,0x50,0x50,0x3C,0x18,0x24,0x7C,0x24
000247 4418
000248 1028
000249 4428
00024a 407c      	.DB  0x18,0x44,0x28,0x10,0x28,0x44,0x7C,0x40
00024b 7c40
00024c 0cc0
00024d 1010
00024e 7c10      	.DB  0x40,0x7C,0xC0,0xC,0x10,0x10,0x10,0x7C
00024f 407c
000250 4078
000251 7c7c
000252 7840      	.DB  0x7C,0x40,0x78,0x40,0x7C,0x7C,0x40,0x78
000253 fc40
000254 547c
000255 5050
000256 7c20      	.DB  0x40,0xFC,0x7C,0x54,0x50,0x50,0x20,0x7C
000257 2050
000258 7c00
000259 507c
00025a 5050      	.DB  0x50,0x20,0x0,0x7C,0x7C,0x50,0x50,0x50
00025b 2820
00025c 5444
00025d 3854
00025e 107c      	.DB  0x20,0x28,0x44,0x54,0x54,0x38,0x7C,0x10
00025f 4438
000260 4838
000261 1434
000262 7c14      	.DB  0x38,0x44,0x38,0x48,0x34,0x14,0x14,0x7C
                 _tbl10_G101:
000263 2710
000264 03e8
000265 0064
000266 000a      	.DB  0x10,0x27,0xE8,0x3,0x64,0x0,0xA,0x0
000267 0001      	.DB  0x1,0x0
                 _tbl16_G101:
000268 1000
000269 0100
00026a 0010
00026b 0001      	.DB  0x0,0x10,0x0,0x1,0x10,0x0,0x1,0x0
                 
                 ;REGISTER BIT VARIABLES INITIALIZATION
                 __REG_BIT_VARS:
00026c 0000      	.DW  0x0000
                 
                 ;GLOBAL REGISTER VARIABLES INITIALIZATION
                 __REG_VARS:
00026d 0000
00026e 0000      	.DB  0x0,0x0,0x0,0x0
00026f 0000
000270 0000      	.DB  0x0,0x0,0x0,0x0
000271 0000      	.DB  0x0,0x0
                 
                 _0x0:
000272 6925
000273 2020
000274 2500
000275 2569      	.DB  0x25,0x69,0x20,0x20,0x0,0x25,0x69,0x25
000276 2025
000277 0020
000278 4c20
000279 534e      	.DB  0x25,0x20,0x20,0x0,0x20,0x4C,0x4E,0x53
00027a 4c4f
00027b 4544
00027c 2052
00027d 5000      	.DB  0x4F,0x4C,0x44,0x45,0x52,0x20,0x0,0x50
00027e 776f
00027f 7265
000280 6465
000281 6220      	.DB  0x6F,0x77,0x65,0x72,0x65,0x64,0x20,0x62
000282 2079
000283 6e4c
000284 4f4b
000285 2078      	.DB  0x79,0x20,0x4C,0x6E,0x4B,0x4F,0x78,0x20
000286 2026
000287 6152
000288 6964
000289 566f      	.DB  0x26,0x20,0x52,0x61,0x64,0x69,0x6F,0x56
00028a 7465
00028b 6c61
00028c 4800
00028d 4145      	.DB  0x65,0x74,0x61,0x6C,0x0,0x48,0x45,0x41
00028e 0054
00028f 2020
000290 2020
000291 4f00      	.DB  0x54,0x0,0x20,0x20,0x20,0x20,0x0,0x4F
000292 4646
000293 2020
000294 2020
E:\Projects\LN_SOLDER\firmware\Debug\List\lnsolder.asm(1301): warning: .cseg .db misalignment - padding zero byte
000295 0000      	.DB  0x46,0x46,0x20,0x20,0x20,0x20,0x0
                 _0x2000060:
E:\Projects\LN_SOLDER\firmware\Debug\List\lnsolder.asm(1303): warning: .cseg .db misalignment - padding zero byte
000296 0001      	.DB  0x1
                 _0x2000000:
000297 4e2d
000298 4e41
000299 4900
00029a 464e      	.DB  0x2D,0x4E,0x41,0x4E,0x0,0x49,0x4E,0x46
E:\Projects\LN_SOLDER\firmware\Debug\List\lnsolder.asm(1306): warning: .cseg .db misalignment - padding zero byte
00029b 0000      	.DB  0x0
                 
                 __GLOBAL_INI_TBL:
00029c 0001      	.DW  0x01
00029d 0002      	.DW  0x02
00029e 04d8      	.DW  __REG_BIT_VARS*2
                 
00029f 000a      	.DW  0x0A
0002a0 0004      	.DW  0x04
0002a1 04da      	.DW  __REG_VARS*2
                 
0002a2 000b      	.DW  0x0B
0002a3 0160      	.DW  _0x188
0002a4 04f0      	.DW  _0x0*2+12
                 
0002a5 001e      	.DW  0x1E
0002a6 016b      	.DW  _0x188+11
0002a7 04fb      	.DW  _0x0*2+23
                 
0002a8 0005      	.DW  0x05
0002a9 0189      	.DW  _0x188+41
0002aa 0519      	.DW  _0x0*2+53
                 
0002ab 0005      	.DW  0x05
0002ac 018e      	.DW  _0x188+46
0002ad 051e      	.DW  _0x0*2+58
                 
0002ae 0008      	.DW  0x08
0002af 0193      	.DW  _0x188+51
0002b0 0523      	.DW  _0x0*2+63
                 
0002b1 0005      	.DW  0x05
0002b2 019b      	.DW  _0x188+59
0002b3 051e      	.DW  _0x0*2+58
                 
0002b4 0005      	.DW  0x05
0002b5 01a0      	.DW  _0x188+64
0002b6 0519      	.DW  _0x0*2+53
                 
0002b7 0005      	.DW  0x05
0002b8 01a5      	.DW  _0x188+69
0002b9 051e      	.DW  _0x0*2+58
                 
0002ba 0005      	.DW  0x05
0002bb 01aa      	.DW  _0x188+74
0002bc 051e      	.DW  _0x0*2+58
                 
0002bd 0008      	.DW  0x08
0002be 01af      	.DW  _0x188+79
0002bf 0523      	.DW  _0x0*2+63
                 
0002c0 0001      	.DW  0x01
0002c1 01bb      	.DW  __seed_G100
0002c2 052c      	.DW  _0x2000060*2
                 
                 _0xFFFFFFFF:
0002c3 0000      	.DW  0
                 
                 #define __GLOBAL_INI_TBL_PRESENT 1
                 
                 __RESET:
0002c4 94f8      	CLI
0002c5 27ee      	CLR  R30
0002c6 bbec      	OUT  EECR,R30
                 
                 ;INTERRUPT VECTORS ARE PLACED
                 ;AT THE START OF FLASH
0002c7 e0f1      	LDI  R31,1
0002c8 bffb      	OUT  GICR,R31
0002c9 bfeb      	OUT  GICR,R30
0002ca bfe5      	OUT  MCUCR,R30
                 
                 ;CLEAR R2-R14
0002cb e08d      	LDI  R24,(14-2)+1
0002cc e0a2      	LDI  R26,2
0002cd 27bb      	CLR  R27
                 __CLEAR_REG:
0002ce 93ed      	ST   X+,R30
0002cf 958a      	DEC  R24
0002d0 f7e9      	BRNE __CLEAR_REG
                 
                 ;CLEAR SRAM
0002d1 e080      	LDI  R24,LOW(__CLEAR_SRAM_SIZE)
0002d2 e094      	LDI  R25,HIGH(__CLEAR_SRAM_SIZE)
0002d3 e6a0      	LDI  R26,__SRAM_START
                 __CLEAR_SRAM:
0002d4 93ed      	ST   X+,R30
0002d5 9701      	SBIW R24,1
0002d6 f7e9      	BRNE __CLEAR_SRAM
                 
                 ;GLOBAL VARIABLES INITIALIZATION
0002d7 e3e8      	LDI  R30,LOW(__GLOBAL_INI_TBL*2)
0002d8 e0f5      	LDI  R31,HIGH(__GLOBAL_INI_TBL*2)
                 __GLOBAL_INI_NEXT:
0002d9 9185      	LPM  R24,Z+
0002da 9195      	LPM  R25,Z+
0002db 9700      	SBIW R24,0
0002dc f061      	BREQ __GLOBAL_INI_END
0002dd 91a5      	LPM  R26,Z+
0002de 91b5      	LPM  R27,Z+
0002df 9005      	LPM  R0,Z+
0002e0 9015      	LPM  R1,Z+
0002e1 01bf      	MOVW R22,R30
0002e2 01f0      	MOVW R30,R0
                 __GLOBAL_INI_LOOP:
0002e3 9005      	LPM  R0,Z+
0002e4 920d      	ST   X+,R0
0002e5 9701      	SBIW R24,1
0002e6 f7e1      	BRNE __GLOBAL_INI_LOOP
0002e7 01fb      	MOVW R30,R22
0002e8 cff0      	RJMP __GLOBAL_INI_NEXT
                 __GLOBAL_INI_END:
                 
                 ;HARDWARE STACK POINTER INITIALIZATION
0002e9 e5ef      	LDI  R30,LOW(__SRAM_END-__HEAP_SIZE)
0002ea bfed      	OUT  SPL,R30
0002eb e0e4      	LDI  R30,HIGH(__SRAM_END-__HEAP_SIZE)
0002ec bfee      	OUT  SPH,R30
                 
                 ;DATA STACK POINTER INITIALIZATION
0002ed e6c0      	LDI  R28,LOW(__SRAM_START+__DSTACK_SIZE)
0002ee e0d1      	LDI  R29,HIGH(__SRAM_START+__DSTACK_SIZE)
                 
0002ef c3a5      	RJMP _main
                 
                 	.ESEG
                 	.ORG 0
                 
                 	.DSEG
                 	.ORG 0x160
                 
                 	.CSEG
                 ;/*******************************************************
                 ;This program was created by the
                 ;CodeWizardAVR V3.10 Advanced
                 ;Automatic Program Generator
                 ; Copyright 1998-2014 Pavel Haiduc, HP InfoTech s.r.l.
                 ;http://www.hpinfotech.com
                 ;
                 ;Project :
                 ;Version :
                 ;Date    : 31.03.2017
                 ;Author  :
                 ;Company :
                 ;Comments:
                 ;
                 ;
                 ;Chip type               : ATmega8
                 ;Program type            : Application
                 ;AVR Core Clock frequency: 1,000000 MHz
                 ;Memory model            : Small
                 ;External RAM size       : 0
                 ;Data Stack size         : 256
                 ;*******************************************************/
                 ;flash unsigned char solder_img[128] = { /* 0X00,0X01,0X20,0X00,0X20,0X00, */
                 ;0X00,0X00,0X00,0X01,0X00,0X00,0X00,0X0A,0X00,0X00,0X00,0X1C,0X00,0X00,0X00,0X3E,
                 ;0X00,0X00,0X00,0X7C,0X00,0X00,0X00,0XF8,0X00,0X00,0X01,0XF0,0X00,0X00,0X03,0XE0,
                 ;0X00,0X00,0X07,0XC0,0X00,0X00,0X0F,0X80,0X00,0X00,0X7F,0X00,0X00,0X00,0XBE,0X00,
                 ;0X00,0X01,0X7C,0X00,0X00,0X01,0XFC,0X00,0X00,0X01,0XF4,0X00,0X00,0X02,0XE8,0X00,
                 ;0X00,0X04,0X70,0X00,0X00,0X08,0X80,0X00,0X00,0X11,0X00,0X00,0X00,0X22,0X00,0X00,
                 ;0X00,0X44,0X00,0X00,0X00,0X88,0X00,0X00,0X01,0X10,0X00,0X00,0X02,0X20,0X00,0X00,
                 ;0X04,0X40,0X00,0X00,0X08,0X80,0X00,0X00,0X11,0X00,0X00,0X00,0X0A,0X00,0X00,0X00,
                 ;0X14,0X00,0X00,0X00,0X20,0X00,0X00,0X00,0X40,0X00,0X00,0X00,0X00,0X00,0X00,0X00,
                 ;};
                 ;flash unsigned char fan_img[128] = { /* 0X00,0X01,0X20,0X00,0X20,0X00, */
                 ;0X00,0X03,0XF0,0X00,0X00,0X07,0XFC,0X00,0X00,0X0F,0XFE,0X00,0X00,0X1F,0XFE,0X00,
                 ;0X00,0X1F,0XFE,0X00,0X00,0X1F,0XFE,0X00,0X00,0X1F,0XFC,0X00,0X00,0X1F,0XF8,0X00,
                 ;0X00,0X1F,0XF0,0X00,0X3C,0X0F,0XE0,0X00,0X7E,0X0F,0XE0,0X00,0X7F,0X07,0XC1,0XF8,
                 ;0XFF,0X84,0X27,0XFC,0XFF,0XE8,0X1F,0XFE,0XFF,0XF1,0X8F,0XFF,0XFF,0XF3,0XCF,0XFF,
                 ;0XFF,0XF3,0XCF,0XFF,0XFF,0XF1,0X8F,0XFF,0X7F,0XF8,0X17,0XFF,0X3F,0XE4,0X21,0XFF,
                 ;0X1F,0X83,0XE0,0XFE,0X00,0X07,0XF0,0X7E,0X00,0X07,0XF0,0X3C,0X00,0X0F,0XF8,0X00,
                 ;0X00,0X1F,0XF8,0X00,0X00,0X3F,0XF8,0X00,0X00,0X7F,0XF8,0X00,0X00,0X7F,0XF8,0X00,
                 ;0X00,0X7F,0XF8,0X00,0X00,0X7F,0XF0,0X00,0X00,0X3F,0XE0,0X00,0X00,0X0F,0XC0,0X00,
                 ;};
                 ;
                 ;
                 ;flash unsigned char hotair_img[128] = { /* 0X00,0X01,0X20,0X00,0X20,0X00, */
                 ;0X00,0X00,0X00,0X00,0X00,0X00,0X00,0X00,0X00,0X00,0X00,0X00,0X00,0X00,0X00,0X00,
                 ;0X07,0XF0,0X00,0X00,0X1F,0XFF,0XF0,0X00,0X1F,0XFF,0XFE,0X00,0X38,0X3F,0XFE,0XFE,
                 ;0X38,0X3F,0XFE,0X00,0X78,0X3F,0XFE,0XFE,0X78,0X3F,0XFE,0X00,0X38,0X3F,0XFE,0XFE,
                 ;0X38,0X3F,0XFE,0X00,0X1F,0XFF,0XF8,0X00,0X1F,0XFF,0XC0,0X00,0X07,0XFE,0X00,0X00,
                 ;0X07,0XF0,0X00,0X00,0X07,0XF0,0X00,0X00,0X07,0XF0,0X00,0X00,0X07,0XF0,0X00,0X00,
                 ;0X07,0XF0,0X00,0X00,0X07,0XF0,0X00,0X00,0X07,0XF0,0X00,0X00,0X07,0XF0,0X00,0X00,
                 ;0X07,0XF0,0X00,0X00,0X07,0XF0,0X00,0X00,0X07,0XF0,0X00,0X00,0X00,0X00,0X00,0X00,
                 ;0X00,0X00,0X00,0X00,0X00,0X00,0X00,0X00,0X00,0X00,0X00,0X00,0X00,0X00,0X00,0X00,
                 ;};
                 ;
                 ;#define solder_TC 6
                 ;#define air_TC 7
                 ;#define solder_RR 0
                 ;#define air_RR 2
                 ;#define fan_RR 1
                 ;#define solder_but PINC.3
                 ;#define solde_led  PORTC.4
                 ;#define air_ger  PINC.5
                 ;
                 ;#define air_heater  PORTB.0
                 ;
                 ;#define sold_power OCR1BL
                 ;#define fan_power OCR1AL
                 ;
                 ;#include <mega8.h>
                 	#ifndef __SLEEP_DEFINED__
                 	#define __SLEEP_DEFINED__
                 	.EQU __se_bit=0x80
                 	.EQU __sm_mask=0x70
                 	.EQU __sm_powerdown=0x20
                 	.EQU __sm_powersave=0x30
                 	.EQU __sm_standby=0x60
                 	.EQU __sm_ext_standby=0x70
                 	.EQU __sm_adc_noise_red=0x10
                 	.SET power_ctrl_reg=mcucr
                 	#endif
                 ;
                 ;#include <delay.h>
                 ;#include <stdlib.h>
                 ;#include <LPH9157-2.h>
                 ;//********************  Siemens C75, 75*******************
                 ;//           	  	  LPH9157-2
                 ;//             		     132176 
                 ;//                   		  v 1.1
                 ;//                  Copyright (c)   aka Igoryosha
                 ;//			  Website : lobotryasy.net
                 ;//***************************************************************************
                 ;
                 ;#include <delay.h>
                 ;
                 ;//*************************************************************
                 ;///
                 ;#define CMD 0
                 ;#define DAT 1
                 ;char RS_old;
                 ;//*************************************************************
                 ;
                 ;/*       -, -.
                 ; - 58 ,    ASCII.
                 ;   0-31  128 - 191   ! */
                 ;
                 ;flash unsigned char font_5x8[][5]  = {
                 ;0x00, 0x00, 0x00, 0x00, 0x00,// (space)  32
                 ;0x00, 0x00, 0x5F, 0x00, 0x00,// !        33
                 ;0x00, 0x07, 0x00, 0x07, 0x00,// "        34
                 ;0x14, 0x7F, 0x14, 0x7F, 0x14,// #        35
                 ;0x24, 0x2A, 0x7F, 0x2A, 0x12,// $        36
                 ;0x23, 0x13, 0x08, 0x64, 0x62,// %        37
                 ;0x36, 0x49, 0x55, 0x22, 0x50,// &        38
                 ;0x00, 0x05, 0x03, 0x00, 0x00,// '        39
                 ;0x00, 0x1C, 0x22, 0x41, 0x00,// (        40
                 ;0x00, 0x41, 0x22, 0x1C, 0x00,// )        41
                 ;0x08, 0x2A, 0x1C, 0x2A, 0x08,// *        42
                 ;0x08, 0x08, 0x3E, 0x08, 0x08,// +        43
                 ;0x00, 0x50, 0x30, 0x00, 0x00,// ,        44
                 ;0x08, 0x08, 0x08, 0x08, 0x08,// -        45
                 ;0x00, 0x30, 0x30, 0x00, 0x00,// .        46
                 ;0x20, 0x10, 0x08, 0x04, 0x02,// /        47
                 ;0x3E, 0x51, 0x49, 0x45, 0x3E,// 0        48
                 ;0x00, 0x42, 0x7F, 0x40, 0x00,// 1        49
                 ;0x42, 0x61, 0x51, 0x49, 0x46,// 2        50
                 ;0x21, 0x41, 0x45, 0x4B, 0x31,// 3        51
                 ;0x18, 0x14, 0x12, 0x7F, 0x10,// 4        52
                 ;0x27, 0x45, 0x45, 0x45, 0x39,// 5        53
                 ;0x3C, 0x4A, 0x49, 0x49, 0x30,// 6        54
                 ;0x01, 0x71, 0x09, 0x05, 0x03,// 7        55
                 ;0x36, 0x49, 0x49, 0x49, 0x36,// 8        56
                 ;0x06, 0x49, 0x49, 0x29, 0x1E,// 9        57
                 ;0x00, 0x36, 0x36, 0x00, 0x00,// :        58
                 ;0x00, 0x56, 0x36, 0x00, 0x00,// ;        59
                 ;0x00, 0x08, 0x14, 0x22, 0x41,// <        60
                 ;0x14, 0x14, 0x14, 0x14, 0x14,// =        61
                 ;0x41, 0x22, 0x14, 0x08, 0x00,// >        62
                 ;0x02, 0x01, 0x51, 0x09, 0x06,// ?        63
                 ;0x32, 0x49, 0x79, 0x41, 0x3E,// @        64
                 ;0x7E, 0x11, 0x11, 0x11, 0x7E,// A        65
                 ;0x7F, 0x49, 0x49, 0x49, 0x36,// B        66
                 ;0x3E, 0x41, 0x41, 0x41, 0x22,// C        67
                 ;0x7F, 0x41, 0x41, 0x22, 0x1C,// D        68
                 ;0x7F, 0x49, 0x49, 0x49, 0x41,// E        69
                 ;0x7F, 0x09, 0x09, 0x01, 0x01,// F        70
                 ;0x3E, 0x41, 0x41, 0x51, 0x32,// G        71
                 ;0x7F, 0x08, 0x08, 0x08, 0x7F,// H        72
                 ;0x00, 0x41, 0x7F, 0x41, 0x00,// I        73
                 ;0x20, 0x40, 0x41, 0x3F, 0x01,// J        74
                 ;0x7F, 0x08, 0x14, 0x22, 0x41,// K        75
                 ;0x7F, 0x40, 0x40, 0x40, 0x40,// L        76
                 ;0x7F, 0x02, 0x04, 0x02, 0x7F,// M        77
                 ;0x7F, 0x04, 0x08, 0x10, 0x7F,// N        78
                 ;0x3E, 0x41, 0x41, 0x41, 0x3E,// O        79
                 ;0x7F, 0x09, 0x09, 0x09, 0x06,// P        80
                 ;0x3E, 0x41, 0x51, 0x21, 0x5E,// Q        81
                 ;0x7F, 0x09, 0x19, 0x29, 0x46,// R        82
                 ;0x46, 0x49, 0x49, 0x49, 0x31,// S        83
                 ;0x01, 0x01, 0x7F, 0x01, 0x01,// T        84
                 ;0x3F, 0x40, 0x40, 0x40, 0x3F,// U        85
                 ;0x1F, 0x20, 0x40, 0x20, 0x1F,// V        86
                 ;0x7F, 0x20, 0x18, 0x20, 0x7F,// W        87
                 ;0x63, 0x14, 0x08, 0x14, 0x63,// X        88
                 ;0x03, 0x04, 0x78, 0x04, 0x03,// Y        89
                 ;0x61, 0x51, 0x49, 0x45, 0x43,// Z        90
                 ;0x00, 0x00, 0x7F, 0x41, 0x41,// [        91
                 ;0x02, 0x04, 0x08, 0x10, 0x20,// "\"      92
                 ;0x41, 0x41, 0x7F, 0x00, 0x00,// ]        93
                 ;0x04, 0x02, 0x01, 0x02, 0x04,// ^        94
                 ;0x40, 0x40, 0x40, 0x40, 0x40,// _        95
                 ;0x00, 0x01, 0x02, 0x04, 0x00,// `        96
                 ;0x20, 0x54, 0x54, 0x54, 0x78,// a        97
                 ;0x7F, 0x48, 0x44, 0x44, 0x38,// b        98
                 ;0x38, 0x44, 0x44, 0x44, 0x20,// c        99
                 ;0x38, 0x44, 0x44, 0x48, 0x7F,// d        100
                 ;0x38, 0x54, 0x54, 0x54, 0x18,// e        101
                 ;0x08, 0x7E, 0x09, 0x01, 0x02,// f        102
                 ;0x08, 0x14, 0x54, 0x54, 0x3C,// g        103
                 ;0x7F, 0x08, 0x04, 0x04, 0x78,// h        104
                 ;0x00, 0x44, 0x7D, 0x40, 0x00,// i        105
                 ;0x20, 0x40, 0x44, 0x3D, 0x00,// j        106
                 ;0x00, 0x7F, 0x10, 0x28, 0x44,// k        107
                 ;0x00, 0x41, 0x7F, 0x40, 0x00,// l        108
                 ;0x7C, 0x04, 0x18, 0x04, 0x78,// m        109
                 ;0x7C, 0x08, 0x04, 0x04, 0x78,// n        110
                 ;0x38, 0x44, 0x44, 0x44, 0x38,// o        111
                 ;0x7C, 0x14, 0x14, 0x14, 0x08,// p        112
                 ;0x08, 0x14, 0x14, 0x18, 0x7C,// q        113
                 ;0x7C, 0x08, 0x04, 0x04, 0x08,// r        114
                 ;0x48, 0x54, 0x54, 0x54, 0x20,// s        115
                 ;0x04, 0x3F, 0x44, 0x40, 0x20,// t        116
                 ;0x3C, 0x40, 0x40, 0x20, 0x7C,// u        117
                 ;0x1C, 0x20, 0x40, 0x20, 0x1C,// v        118
                 ;0x3C, 0x40, 0x30, 0x40, 0x3C,// w        119
                 ;0x44, 0x28, 0x10, 0x28, 0x44,// x        120
                 ;0x0C, 0x50, 0x50, 0x50, 0x3C,// y        121
                 ;0x44, 0x64, 0x54, 0x4C, 0x44,// z        122
                 ;0x00, 0x08, 0x36, 0x41, 0x00,// {        123
                 ;0x00, 0x00, 0x7F, 0x00, 0x00,// |        124
                 ;0x00, 0x41, 0x36, 0x08, 0x00,// }        125
                 ;0x00, 0x00, 0x00, 0x00, 0x00,// (space)  126
                 ;0x00, 0x00, 0x00, 0x00, 0x00,// (space)  127
                 ;0x7E, 0x11, 0x11, 0x11, 0x7E,// A        192
                 ;0x7F, 0x45, 0x45, 0x45, 0x39,//         193
                 ;0x7F, 0x49, 0x49, 0x49, 0x36,// B        194
                 ;0x7F, 0x01, 0x01, 0x01, 0x03,//         195
                 ;0xC0, 0x7E, 0x41, 0x7F, 0xC0,//         196
                 ;0x7F, 0x49, 0x49, 0x49, 0x41,// E        197
                 ;119,8,127,8,119,             //         198
                 ;34,73,73,73,54,              //         199
                 ;127,32,16,8,127,             //         200
                 ;127,32,19,8,127,             //         201
                 ;0x7F, 0x08, 0x14, 0x22, 0x41,// K        202
                 ;64,62,1,1,127,               //         203
                 ;0x7F, 0x02, 0x04, 0x02, 0x7F,// M        204
                 ;0x7F, 0x08, 0x08, 0x08, 0x7F,// H        205
                 ;0x3E, 0x41, 0x41, 0x41, 0x3E,// O        206
                 ;127,1,1,1,127,               //         207
                 ;0x7F, 0x09, 0x09, 0x09, 0x06,// P        208
                 ;0x3E, 0x41, 0x41, 0x41, 0x22,// C        209
                 ;0x01, 0x01, 0x7F, 0x01, 0x01,// T        210
                 ;39,72,72,72,63,              //         211
                 ;30,33,127,33,30,             //         212
                 ;0x63, 0x14, 0x08, 0x14, 0x63,// X        213
                 ;127,64,64,127,192,           //         214
                 ;15,16,16,16,127,             //         215
                 ;127,64,124,64,127,           //         216
                 ;127,64,124,64,255,           //         217
                 ;1,127,72,72,48,              //         218
                 ;127,72,48,0,127,             //         219
                 ;127,72,72,72,48,             //         220
                 ;34,73,73,73,62,              //         221
                 ;127,8,62,65,62,              //         222
                 ;118,9,9,9,127,               //         223
                 ;0x20, 0x54, 0x54, 0x54, 0x78,// a        224
                 ;124, 84, 84, 84, 36,         //         225
                 ;124, 84, 84, 84, 40,         //         226
                 ;124, 4, 4, 4, 12,            //         227
                 ;192, 120, 68, 124, 192,      //         228
                 ;0x38, 0x54, 0x54, 0x54, 0x18,// e        229
                 ;108, 16, 124, 16, 108,       //         230
                 ;40, 68, 84, 84, 40,          //         231
                 ;124, 32, 16, 8, 124,         //         232
                 ;124, 33, 18, 8, 124,         //         233
                 ;124, 16, 16, 40, 68,         //         234
                 ;64, 56, 4, 4, 124,           //         235
                 ;124, 8, 16, 8, 124,          //         236
                 ;124, 16, 16, 16, 124,        //         237
                 ;0x38, 0x44, 0x44, 0x44, 0x38,// o        238
                 ;124, 4, 4, 4, 124,           //         239
                 ;0x7C, 0x14, 0x14, 0x14, 0x08,// p        240
                 ;0x38, 0x44, 0x44, 0x44, 0x20,// c        241
                 ;4, 4, 124, 4, 4,             //         242
                 ;0x0C, 0x50, 0x50, 0x50, 0x3C,// y        243
                 ;24, 36, 124, 36, 24,         //         244
                 ;0x44, 0x28, 0x10, 0x28, 0x44,// x        245
                 ;124, 64, 64, 124, 192,       //         246
                 ;12, 16, 16, 16, 124,         //         247
                 ;124, 64, 120, 64, 124,       //         248
                 ;124, 64, 120, 64, 252,       //         249
                 ;124, 84, 80, 80, 32,         //         250
                 ;124,80,32,0,124,             //         251
                 ;124, 80, 80, 80, 32,         //         252
                 ;40, 68, 84, 84, 56,          //         253
                 ;124, 16, 56, 68, 56,         //         254
                 ;72, 52, 20, 20, 124          //         255
                 ;};
                 ;
                 ;#ifdef _USE_SOFT_SPI
                 ;//===============================================================
                 ;//			         SPI
                 ;//===============================================================
                 ;void Send_spi(unsigned char data)
                 ; 0000 004A {
                 
                 	.CSEG
                 _Send_spi:
                 ; .FSTART _Send_spi
                 ;
                 ;    ClearBit(LCD_PORT, LCD_DATA);
0002f0 93aa      	ST   -Y,R26
                 ;	data -> Y+0
0002f1 d5ee      	RCALL SUBOPT_0x0
                 ;    if ((data & 128) == 128)   SetBit(LCD_PORT, LCD_DATA);
0002f2 78e0      	ANDI R30,LOW(0x80)
0002f3 38e0      	CPI  R30,LOW(0x80)
0002f4 f409      	BRNE _0x3
0002f5 9a97      	SBI  0x12,7
                 ;    SetBit(LCD_PORT, LCD_CLK);
                 _0x3:
0002f6 d5ec      	RCALL SUBOPT_0x1
                 ;    ClearBit(LCD_PORT, LCD_CLK);
                 ;    ClearBit(LCD_PORT, LCD_DATA);
                 ;    if ((data & 64) == 64) SetBit(LCD_PORT, LCD_DATA);
0002f7 74e0      	ANDI R30,LOW(0x40)
0002f8 34e0      	CPI  R30,LOW(0x40)
0002f9 f409      	BRNE _0x4
0002fa 9a97      	SBI  0x12,7
                 ;    SetBit(LCD_PORT, LCD_CLK);
                 _0x4:
0002fb d5e7      	RCALL SUBOPT_0x1
                 ;    ClearBit(LCD_PORT, LCD_CLK);
                 ;    ClearBit(LCD_PORT, LCD_DATA);
                 ;    if ((data & 32) == 32) SetBit(LCD_PORT, LCD_DATA);
0002fc 72e0      	ANDI R30,LOW(0x20)
0002fd 32e0      	CPI  R30,LOW(0x20)
0002fe f409      	BRNE _0x5
0002ff 9a97      	SBI  0x12,7
                 ;    SetBit(LCD_PORT, LCD_CLK);
                 _0x5:
000300 d5e2      	RCALL SUBOPT_0x1
                 ;    ClearBit(LCD_PORT, LCD_CLK);
                 ;    ClearBit(LCD_PORT, LCD_DATA);
                 ;    if ((data & 16) ==16)  SetBit(LCD_PORT, LCD_DATA);
000301 71e0      	ANDI R30,LOW(0x10)
000302 31e0      	CPI  R30,LOW(0x10)
000303 f409      	BRNE _0x6
000304 9a97      	SBI  0x12,7
                 ;    SetBit(LCD_PORT, LCD_CLK);
                 _0x6:
000305 d5dd      	RCALL SUBOPT_0x1
                 ;    ClearBit(LCD_PORT, LCD_CLK);
                 ;    ClearBit(LCD_PORT, LCD_DATA);
                 ;    if ((data & 8) == 8)   SetBit(LCD_PORT, LCD_DATA);
000306 70e8      	ANDI R30,LOW(0x8)
000307 30e8      	CPI  R30,LOW(0x8)
000308 f409      	BRNE _0x7
000309 9a97      	SBI  0x12,7
                 ;    SetBit(LCD_PORT, LCD_CLK);
                 _0x7:
00030a d5d8      	RCALL SUBOPT_0x1
                 ;    ClearBit(LCD_PORT, LCD_CLK);
                 ;    ClearBit(LCD_PORT, LCD_DATA);
                 ;    if ((data & 4) == 4)   SetBit(LCD_PORT, LCD_DATA);
00030b 70e4      	ANDI R30,LOW(0x4)
00030c 30e4      	CPI  R30,LOW(0x4)
00030d f409      	BRNE _0x8
00030e 9a97      	SBI  0x12,7
                 ;    SetBit(LCD_PORT, LCD_CLK);
                 _0x8:
00030f d5d3      	RCALL SUBOPT_0x1
                 ;    ClearBit(LCD_PORT, LCD_CLK);
                 ;    ClearBit(LCD_PORT, LCD_DATA);
                 ;    if ((data & 2) == 2)   SetBit(LCD_PORT, LCD_DATA);
000310 70e2      	ANDI R30,LOW(0x2)
000311 30e2      	CPI  R30,LOW(0x2)
000312 f409      	BRNE _0x9
000313 9a97      	SBI  0x12,7
                 ;    SetBit(LCD_PORT, LCD_CLK);
                 _0x9:
000314 d5ce      	RCALL SUBOPT_0x1
                 ;    ClearBit(LCD_PORT, LCD_CLK);
                 ;    ClearBit(LCD_PORT, LCD_DATA);
                 ;    if ((data & 1) == 1)   SetBit(LCD_PORT, LCD_DATA);
000315 70e1      	ANDI R30,LOW(0x1)
000316 30e1      	CPI  R30,LOW(0x1)
000317 f409      	BRNE _0xA
000318 9a97      	SBI  0x12,7
                 ;    SetBit(LCD_PORT, LCD_CLK);
                 _0xA:
000319 9a96      	SBI  0x12,6
                 ;    ClearBit(LCD_PORT, LCD_CLK);
00031a 9896      	CBI  0x12,6
                 ;}
00031b c377      	RJMP _0x20A0003
                 ; .FEND
                 ;
                 ;#else // _USE_SOFT_SPI
                 ;//===============================================================
                 ;//			             SPI
                 ;//===============================================================
                 ;//void Send_spi(unsigned char data)
                 ;//{
                 ;//	//  SCK: F/16
                 ;//    SPCR = (0<<SPIE)|(1<<SPE)|(0<<DORD)|(1<<MSTR)|(0<<CPOL)|(0<<CPHA)|(0<<SPR1)|(1<<SPR0);
                 ;//    SPDR = data;
                 ;//    while(!(SPSR & (1<<SPIF)));
                 ;//    SPCR = 0;
                 ;//}
                 ;
                 ;#endif // _USE_SOFT_SPI
                 ;
                 ;//===============================================================
                 ;//  /  LCD (RS==0 - , RS==1 - )
                 ;//===============================================================
                 ;void Send_to_lcd (unsigned char RS, unsigned char data)
                 ;{
                 _Send_to_lcd:
                 ; .FSTART _Send_to_lcd
                 ;    ClearBit(LCD_PORT, LCD_CLK);
00031c 93aa      	ST   -Y,R26
                 ;	RS -> Y+1
                 ;	data -> Y+0
00031d 9896      	CBI  0x12,6
                 ;    ClearBit(LCD_PORT, LCD_DATA);
00031e 9897      	CBI  0x12,7
                 ;    if ((RS_old != RS) || (!RS_old && !RS)) //   RS
00031f 81e9      	LDD  R30,Y+1
000320 15e7      	CP   R30,R7
000321 f429      	BRNE _0xC
000322 2077      	TST  R7
000323 f411      	BRNE _0xD
000324 d5c1      	RCALL SUBOPT_0x2
000325 f009      	BREQ _0xC
                 _0xD:
000326 c007      	RJMP _0xB
                 _0xC:
                 ;    {
                 ;        SetBit(LCD_PORT, LCD_CS);	//  CS
000327 9a95      	SBI  0x12,5
                 ;        if(RS)    SetBit(LCD_PORT, LCD_RS);
000328 d5bd      	RCALL SUBOPT_0x2
000329 f011      	BREQ _0x10
00032a 9a94      	SBI  0x12,4
                 ;        else      ClearBit(LCD_PORT, LCD_RS);
00032b c001      	RJMP _0x11
                 _0x10:
00032c 9894      	CBI  0x12,4
                 ;        ClearBit(LCD_PORT, LCD_CS);	//  CS
                 _0x11:
00032d 9895      	CBI  0x12,5
                 ;    }
                 ;
                 ;    Send_spi (data);
                 _0xB:
00032e 81a8      	LD   R26,Y
00032f dfc0      	RCALL _Send_spi
                 ;
                 ;    RS_old=RS;  //  RS
000330 8079      	LDD  R7,Y+1
                 ;    ClearBit(LCD_PORT, LCD_DATA);
000331 9897      	CBI  0x12,7
                 ;}
000332 c035      	RJMP _0x20A0006
                 ; .FEND
                 ;
                 ;//===============================================================
                 ;//                        
                 ;//===============================================================
                 ;void LCD_init(void)
                 ;{
                 _LCD_init:
                 ; .FSTART _LCD_init
                 ; Init_Port();
000333 b3e1      	IN   R30,0x11
000334 6fe8      	ORI  R30,LOW(0xF8)
000335 bbe1      	OUT  0x11,R30
                 ; ClearBit(LCD_PORT, LCD_RESET);
000336 9893      	CBI  0x12,3
                 ; delay_ms(500);
000337 efa4      	LDI  R26,LOW(500)
000338 e0b1      	LDI  R27,HIGH(500)
000339 d6f3      	RCALL _delay_ms
                 ; SetBit(LCD_PORT, LCD_RESET);
00033a 9a93      	SBI  0x12,3
                 ; delay_ms(500);
00033b efa4      	LDI  R26,LOW(500)
00033c e0b1      	LDI  R27,HIGH(500)
00033d d5ab      	RCALL SUBOPT_0x3
                 ; Send_to_lcd(CMD, 0x01); // 
00033e e0a1      	LDI  R26,LOW(1)
00033f d5ad      	RCALL SUBOPT_0x4
                 ; Send_to_lcd(CMD, 0x36); //Memory Access Control (    (): 0bVHRXXXXX, V -  ...
000340 e3a6      	LDI  R26,LOW(54)
000341 d5af      	RCALL SUBOPT_0x5
                 ;                         //H -    (0 - -, 1 - -), R -    ...
                 ; Send_to_lcd(DAT, 0x00); //      -    
000342 e0a0      	LDI  R26,LOW(0)
000343 d5a9      	RCALL SUBOPT_0x4
                 ; Send_to_lcd(CMD, 0x11); //   
000344 e1a1      	LDI  R26,LOW(17)
000345 d5af      	RCALL SUBOPT_0x6
                 ; delay_ms(20);
                 ; Send_to_lcd(CMD, 0x3a); //  
000346 e3aa      	LDI  R26,LOW(58)
000347 d5a9      	RCALL SUBOPT_0x5
                 ; #ifdef _8_BIT_COLOR
                 ; Send_to_lcd(DAT, 0x02); //   256 
                 ; #else
                 ; Send_to_lcd(DAT, 0x05); //    65536 
000348 e0a5      	LDI  R26,LOW(5)
000349 d5ab      	RCALL SUBOPT_0x6
                 ; #endif
                 ; delay_ms(20);
                 ; Send_to_lcd(CMD, 0x29); // 
00034a e2a9      	LDI  R26,LOW(41)
00034b dfd0      	RCALL _Send_to_lcd
                 ;}
00034c 9508      	RET
                 ; .FEND
                 ;
                 ;//===============================================================
                 ;//            
                 ;//===============================================================
                 ;void SetRotation (unsigned int angle)
                 ;{
                 _SetRotation:
                 ; .FSTART _SetRotation
                 ;    rot=angle;
00034d d5ab      	RCALL SUBOPT_0x7
                 ;	angle -> Y+0
                +
00034e 8048     +LDD R4 , Y + 0
00034f 8059     +LDD R5 , Y + 0 + 1
                 	__GETWRS 4,5,0
                 ;    Send_to_lcd(CMD, 0x36);
000350 d5ab      	RCALL SUBOPT_0x8
000351 e3a6      	LDI  R26,LOW(54)
000352 dfc9      	RCALL _Send_to_lcd
                 ;    switch (rot)
000353 01f2      	MOVW R30,R4
                 ;    {
                 ;        case 0:
000354 9730      	SBIW R30,0
000355 f419      	BRNE _0x15
                 ;        Send_to_lcd(DAT, 0x00); //      -    
000356 d5a8      	RCALL SUBOPT_0x9
000357 e0a0      	LDI  R26,LOW(0)
000358 c00e      	RJMP _0x197
                 ;        break;
                 ;        //================================
                 ;        case 90:
                 _0x15:
000359 d5a8      	RCALL SUBOPT_0xA
00035a f419      	BRNE _0x16
                 ;        Send_to_lcd(DAT, 0x40); //      -    
00035b d5a3      	RCALL SUBOPT_0x9
00035c e4a0      	LDI  R26,LOW(64)
00035d c009      	RJMP _0x197
                 ;        break;
                 ;        //================================
                 ;        case 180:
                 _0x16:
00035e d5a7      	RCALL SUBOPT_0xB
00035f f419      	BRNE _0x17
                 ;        Send_to_lcd(DAT, 0xC0); //      -    
000360 d59e      	RCALL SUBOPT_0x9
000361 eca0      	LDI  R26,LOW(192)
000362 c004      	RJMP _0x197
                 ;        break;
                 ;        //================================
                 ;        case 270:
                 _0x17:
000363 d5a6      	RCALL SUBOPT_0xC
000364 f419      	BRNE _0x14
                 ;        Send_to_lcd(DAT, 0x80); //      -    
000365 d599      	RCALL SUBOPT_0x9
000366 e8a0      	LDI  R26,LOW(128)
                 _0x197:
000367 dfb4      	RCALL _Send_to_lcd
                 ;        break;
                 ;        //================================
                 ;    };
                 _0x14:
                 ;}
                 _0x20A0006:
000368 9622      	ADIW R28,2
000369 9508      	RET
                 ; .FEND
                 ;
                 ;//===============================================================
                 ;//                 
                 ;//===============================================================
                 ;void SetArea(char x1, char x2, char y1, char y2)
                 ;{
                 _SetArea:
                 ; .FSTART _SetArea
                 ;    Send_to_lcd( CMD, 0x2A );  //   X
00036a 93aa      	ST   -Y,R26
                 ;	x1 -> Y+3
                 ;	x2 -> Y+2
                 ;	y1 -> Y+1
                 ;	y2 -> Y+0
00036b d590      	RCALL SUBOPT_0x8
00036c e2aa      	LDI  R26,LOW(42)
00036d d583      	RCALL SUBOPT_0x5
                 ;    Send_to_lcd( DAT, x1 );    //
00036e 81ac      	LDD  R26,Y+4
00036f d581      	RCALL SUBOPT_0x5
                 ;    Send_to_lcd( DAT, x2 );    //
000370 81ab      	LDD  R26,Y+3
000371 d57b      	RCALL SUBOPT_0x4
                 ;
                 ;    Send_to_lcd( CMD, 0x2B );  //   Y
000372 e2ab      	LDI  R26,LOW(43)
000373 d57d      	RCALL SUBOPT_0x5
                 ;    Send_to_lcd( DAT, y1 );    //
000374 81aa      	LDD  R26,Y+2
000375 d57b      	RCALL SUBOPT_0x5
                 ;    Send_to_lcd( DAT, y2 );    //
000376 81a9      	LDD  R26,Y+1
000377 d575      	RCALL SUBOPT_0x4
                 ;
                 ;    Send_to_lcd( CMD, 0x2C );  //          
000378 e2ac      	LDI  R26,LOW(44)
000379 dfa2      	RCALL _Send_to_lcd
                 ;}
00037a c0ea      	RJMP _0x20A0005
                 ; .FEND
                 ;
                 ;//===============================================================
                 ;//                         
                 ;//===============================================================
                 ;void Put_Pixel (char x, char y, unsigned int color)
                 ;{
                 _Put_Pixel:
                 ; .FSTART _Put_Pixel
                 ;    SetArea( x, x, y, y );
00037b d57d      	RCALL SUBOPT_0x7
                 ;	x -> Y+3
                 ;	y -> Y+2
                 ;	color -> Y+0
00037c 81eb      	LDD  R30,Y+3
00037d 93ea      	ST   -Y,R30
00037e 81ec      	LDD  R30,Y+4
00037f 93ea      	ST   -Y,R30
000380 81ec      	LDD  R30,Y+4
000381 93ea      	ST   -Y,R30
000382 81ad      	LDD  R26,Y+5
000383 dfe6      	RCALL _SetArea
                 ;    SetBit(LCD_PORT, LCD_RS); // 
000384 9a94      	SBI  0x12,4
                 ;
                 ;    #ifdef _8_BIT_COLOR		//(8-    (256 ))
                 ;    Send_to_lcd( DAT, color );	// -   
                 ;    #else			        //(16-    (65536 ))
                 ;    Send_to_lcd( DAT, (color >> 8) );
000385 d579      	RCALL SUBOPT_0x9
000386 81aa      	LDD  R26,Y+2
000387 d569      	RCALL SUBOPT_0x5
                 ;    Send_to_lcd( DAT, color );
000388 81a9      	LDD  R26,Y+1
000389 df92      	RCALL _Send_to_lcd
                 ;    #endif
                 ;}
00038a c0da      	RJMP _0x20A0005
                 ; .FEND
                 ;
                 ;//===============================================================
                 ;//               
                 ;//===============================================================
                 ;void Send_Symbol (unsigned char symbol, char x, char y, int t_color, int b_color, char zoom_width, char zoom_height)
                 ;{
                 _Send_Symbol:
                 ; .FSTART _Send_Symbol
                 ; unsigned char temp_symbol, a, b, zw, zh, mask;
                 ;
                 ; if (symbol>127) symbol-=64;    //    ASCII
00038b 93aa      	ST   -Y,R26
00038c d74f      	RCALL __SAVELOCR6
                 ;	symbol -> Y+14
                 ;	x -> Y+13
                 ;	y -> Y+12
                 ;	t_color -> Y+10
                 ;	b_color -> Y+8
                 ;	zoom_width -> Y+7
                 ;	zoom_height -> Y+6
                 ;	temp_symbol -> R17
                 ;	a -> R16
                 ;	b -> R19
                 ;	zw -> R18
                 ;	zh -> R21
                 ;	mask -> R20
00038d 85ae      	LDD  R26,Y+14
00038e 38a0      	CPI  R26,LOW(0x80)
00038f f018      	BRLO _0x19
000390 85ee      	LDD  R30,Y+14
000391 54e0      	SUBI R30,LOW(64)
000392 87ee      	STD  Y+14,R30
                 ; for ( a = 0; a < 5; a++) // 5 ,  
                 _0x19:
000393 e000      	LDI  R16,LOW(0)
                 _0x1B:
000394 3005      	CPI  R16,5
000395 f008      	BRLO PC+2
000396 c070      	RJMP _0x1C
                 ; {
                 ;    temp_symbol = font_5x8[symbol-32][a];
000397 85ee      	LDD  R30,Y+14
000398 e0f0      	LDI  R31,0
000399 97b0      	SBIW R30,32
00039a e0a5      	LDI  R26,LOW(5)
00039b e0b0      	LDI  R27,HIGH(5)
00039c d6be      	RCALL __MULW12U
00039d 55ea      	SUBI R30,LOW(-_font_5x8*2)
00039e 4ffe      	SBCI R31,HIGH(-_font_5x8*2)
00039f 01df      	MOVW R26,R30
0003a0 2fe0      	MOV  R30,R16
0003a1 d56c      	RCALL SUBOPT_0xD
0003a2 9114      	LPM  R17,Z
                 ;    zw = 0;
0003a3 e020      	LDI  R18,LOW(0)
                 ;    while(zw != zoom_width) //   zw 
                 _0x1D:
0003a4 81ef      	LDD  R30,Y+7
0003a5 17e2      	CP   R30,R18
0003a6 f409      	BRNE PC+2
0003a7 c04b      	RJMP _0x1F
                 ;    {
                 ;        mask=0x01;
0003a8 e041      	LDI  R20,LOW(1)
                 ;        switch(rot)
0003a9 01f2      	MOVW R30,R4
                 ;        {
                 ;            case 0: case 180: SetArea( x+zw, x+zw, y, y+(zoom_height*8)-1 ); break;
0003aa 9730      	SBIW R30,0
0003ab f011      	BREQ _0x24
0003ac d559      	RCALL SUBOPT_0xB
0003ad f481      	BRNE _0x25
                 _0x24:
0003ae 2fe2      	MOV  R30,R18
0003af 85ad      	LDD  R26,Y+13
0003b0 d561      	RCALL SUBOPT_0xE
0003b1 2fe2      	MOV  R30,R18
0003b2 85ae      	LDD  R26,Y+14
0003b3 d55e      	RCALL SUBOPT_0xE
0003b4 85ee      	LDD  R30,Y+14
0003b5 93ea      	ST   -Y,R30
0003b6 85e9      	LDD  R30,Y+9
0003b7 0fee      	LSL  R30
0003b8 0fee      	LSL  R30
0003b9 0fee      	LSL  R30
0003ba 85af      	LDD  R26,Y+15
0003bb 0fae      	ADD  R26,R30
0003bc 50a1      	SUBI R26,LOW(1)
0003bd c014      	RJMP _0x198
                 ;            case 90: case 270: SetArea( x, x+(zoom_height*8)-1, y+zw, y+zw ); break;
                 _0x25:
0003be d543      	RCALL SUBOPT_0xA
0003bf f011      	BREQ _0x27
0003c0 d549      	RCALL SUBOPT_0xC
0003c1 f489      	BRNE _0x22
                 _0x27:
0003c2 85ed      	LDD  R30,Y+13
0003c3 93ea      	ST   -Y,R30
0003c4 81ef      	LDD  R30,Y+7
0003c5 0fee      	LSL  R30
0003c6 0fee      	LSL  R30
0003c7 0fee      	LSL  R30
0003c8 85ae      	LDD  R26,Y+14
0003c9 0fae      	ADD  R26,R30
0003ca 50a1      	SUBI R26,LOW(1)
0003cb 93aa      	ST   -Y,R26
0003cc 2fe2      	MOV  R30,R18
0003cd 85ae      	LDD  R26,Y+14
0003ce d543      	RCALL SUBOPT_0xE
0003cf 2fe2      	MOV  R30,R18
0003d0 85af      	LDD  R26,Y+15
0003d1 0fae      	ADD  R26,R30
                 _0x198:
0003d2 df97      	RCALL _SetArea
                 ;        }
                 _0x22:
                 ;        SetBit(LCD_PORT, LCD_RS); // 
0003d3 9a94      	SBI  0x12,4
                 ;        for ( b = 0; b < 8; b++ ) //  8  
0003d4 e030      	LDI  R19,LOW(0)
                 _0x2A:
0003d5 3038      	CPI  R19,8
0003d6 f4d0      	BRSH _0x2B
                 ;        {
                 ;            zh = zoom_height; // zoom_height    
0003d7 815e      	LDD  R21,Y+6
                 ;            while(zh != 0) //   z 
                 _0x2C:
0003d8 3050      	CPI  R21,0
0003d9 f0a1      	BREQ _0x2E
                 ;            {
                 ;                if (temp_symbol&mask)
0003da 2fe4      	MOV  R30,R20
0003db 23e1      	AND  R30,R17
0003dc f041      	BREQ _0x2F
                 ;                {
                 ;                    #ifdef _8_BIT_COLOR	//(8-    (256 ))
                 ;                    Send_to_lcd( DAT, t_color ); // -   
                 ;                    #else			        //(16-    (65536 ))
                 ;                    Send_to_lcd( DAT, (t_color >> 8) ); Send_to_lcd( DAT, t_color );
0003dd d521      	RCALL SUBOPT_0x9
0003de 85eb      	LDD  R30,Y+11
0003df 85fc      	LDD  R31,Y+11+1
0003e0 d670      	RCALL __ASRW8
0003e1 2fae      	MOV  R26,R30
0003e2 d50e      	RCALL SUBOPT_0x5
0003e3 85ab      	LDD  R26,Y+11
0003e4 c006      	RJMP _0x199
                 ;                    #endif
                 ;                }
                 ;                else
                 _0x2F:
                 ;               {
                 ;                    #ifdef _8_BIT_COLOR	//(8-    (256 ))
                 ;                    Send_to_lcd( DAT, b_color ); // -   
                 ;                    #else			        //(16-    (65536 ))
                 ;                    Send_to_lcd( DAT, (b_color >> 8) ); Send_to_lcd( DAT, b_color );
0003e5 d519      	RCALL SUBOPT_0x9
0003e6 d52e      	RCALL SUBOPT_0xF
0003e7 d669      	RCALL __ASRW8
0003e8 2fae      	MOV  R26,R30
0003e9 d507      	RCALL SUBOPT_0x5
0003ea 85a9      	LDD  R26,Y+9
                 _0x199:
0003eb df30      	RCALL _Send_to_lcd
                 ;                    #endif
                 ;                }
                 ;                zh--;
0003ec 5051      	SUBI R21,1
                 ;            }
0003ed cfea      	RJMP _0x2C
                 _0x2E:
                 ;            mask<<=1; //  mask  1  ;
0003ee 0f44      	LSL  R20
                 ;        }
0003ef 5f3f      	SUBI R19,-1
0003f0 cfe4      	RJMP _0x2A
                 _0x2B:
                 ;        zw++;
0003f1 5f2f      	SUBI R18,-1
                 ;    }
0003f2 cfb1      	RJMP _0x1D
                 _0x1F:
                 ;  switch(rot)
0003f3 01f2      	MOVW R30,R4
                 ;  {
                 ;   case 0: case 180: x=x+zoom_width;  break; //      x    
0003f4 9730      	SBIW R30,0
0003f5 f011      	BREQ _0x35
0003f6 d50f      	RCALL SUBOPT_0xB
0003f7 f429      	BRNE _0x36
                 _0x35:
0003f8 81ef      	LDD  R30,Y+7
0003f9 85ad      	LDD  R26,Y+13
0003fa 0fea      	ADD  R30,R26
0003fb 87ed      	STD  Y+13,R30
0003fc c008      	RJMP _0x33
                 ;   case 90: case 270: y=y+zoom_width; break; //      y    
                 _0x36:
0003fd d504      	RCALL SUBOPT_0xA
0003fe f011      	BREQ _0x38
0003ff d50a      	RCALL SUBOPT_0xC
000400 f421      	BRNE _0x33
                 _0x38:
000401 81ef      	LDD  R30,Y+7
000402 85ac      	LDD  R26,Y+12
000403 0fea      	ADD  R30,R26
000404 87ec      	STD  Y+12,R30
                 ;  }
                 _0x33:
                 ; }
000405 5f0f      	SUBI R16,-1
000406 cf8d      	RJMP _0x1B
                 _0x1C:
                 ;}
000407 d6db      	RCALL __LOADLOCR6
000408 962f      	ADIW R28,15
000409 9508      	RET
                 ; .FEND
                 ;
                 ;//===============================================================
                 ;//     ASCII-
                 ;//===============================================================
                 ;void LCD_Putchar(char symbol, char x, char y, int t_color, int b_color, char zoom_width, char zoom_height)
                 ;{
                 _LCD_Putchar:
                 ; .FSTART _LCD_Putchar
                 ;    unsigned char m;
                 ;    if(zoom_width == 0)   zoom_width = 1;
00040a 93aa      	ST   -Y,R26
00040b 931a      	ST   -Y,R17
                 ;	symbol -> Y+9
                 ;	x -> Y+8
                 ;	y -> Y+7
                 ;	t_color -> Y+5
                 ;	b_color -> Y+3
                 ;	zoom_width -> Y+2
                 ;	zoom_height -> Y+1
                 ;	m -> R17
00040c 81ea      	LDD  R30,Y+2
00040d 30e0      	CPI  R30,0
00040e f411      	BRNE _0x3A
00040f e0e1      	LDI  R30,LOW(1)
000410 83ea      	STD  Y+2,R30
                 ;    if(zoom_height == 0)  zoom_height = 1;
                 _0x3A:
000411 d4d4      	RCALL SUBOPT_0x2
000412 f411      	BRNE _0x3B
000413 e0e1      	LDI  R30,LOW(1)
000414 83e9      	STD  Y+1,R30
                 ;    switch (rot)
                 _0x3B:
000415 01f2      	MOVW R30,R4
                 ;    {
                 ;        case 90: case 270:  m=y; y=x; x=m;
000416 d4eb      	RCALL SUBOPT_0xA
000417 f011      	BREQ _0x40
000418 d4f1      	RCALL SUBOPT_0xC
000419 f421      	BRNE _0x3E
                 _0x40:
00041a 811f      	LDD  R17,Y+7
00041b 85e8      	LDD  R30,Y+8
00041c 83ef      	STD  Y+7,R30
                +
00041d 8718     +STD Y + 8 , R17
                 	__PUTBSR 17,8
                 ;                            break;
                 ;    };
                 _0x3E:
                 ;    Send_Symbol( symbol, x, y, t_color, b_color, zoom_width, zoom_height);
00041e d4f9      	RCALL SUBOPT_0x10
00041f d4f8      	RCALL SUBOPT_0x10
000420 d4f7      	RCALL SUBOPT_0x10
000421 d4f9      	RCALL SUBOPT_0x11
000422 d4f8      	RCALL SUBOPT_0x11
000423 d4f4      	RCALL SUBOPT_0x10
000424 85a9      	LDD  R26,Y+9
000425 df65      	RCALL _Send_Symbol
                 ;}
000426 8118      	LDD  R17,Y+0
000427 962a      	ADIW R28,10
000428 9508      	RET
                 ; .FEND
                 ;
                 ;//===============================================================
                 ;//            ,   ram
                 ;//===============================================================
                 ;void LCD_Puts(char *str, int x, int y,  int t_color, int b_color, char zoom_width, char zoom_height)
                 ;{
                 _LCD_Puts:
                 ; .FSTART _LCD_Puts
                 ;    unsigned char i=0;
                 ;
                 ;    if(zoom_width == 0)   zoom_width = 1;
000429 93aa      	ST   -Y,R26
00042a 931a      	ST   -Y,R17
                 ;	*str -> Y+11
                 ;	x -> Y+9
                 ;	y -> Y+7
                 ;	t_color -> Y+5
                 ;	b_color -> Y+3
                 ;	zoom_width -> Y+2
                 ;	zoom_height -> Y+1
                 ;	i -> R17
00042b e010      	LDI  R17,0
00042c 81ea      	LDD  R30,Y+2
00042d 30e0      	CPI  R30,0
00042e f411      	BRNE _0x42
00042f e0e1      	LDI  R30,LOW(1)
000430 83ea      	STD  Y+2,R30
                 ;    if(zoom_height == 0)  zoom_height = 1;
                 _0x42:
000431 d4b4      	RCALL SUBOPT_0x2
000432 f411      	BRNE _0x43
000433 e0e1      	LDI  R30,LOW(1)
000434 83e9      	STD  Y+1,R30
                 ;
                 ;    while (str[i]) //x  y -    ;    i     ...
                 _0x43:
                 _0x44:
000435 d4ea      	RCALL SUBOPT_0x12
000436 30e0      	CPI  R30,0
000437 f091      	BREQ _0x46
                 ;    {
                 ;        LCD_Putchar(str[i], x+(i*6*zoom_width), y, t_color, b_color, zoom_width, zoom_height);
000438 d4e7      	RCALL SUBOPT_0x12
000439 93ea      	ST   -Y,R30
00043a e0a6      	LDI  R26,LOW(6)
00043b 021a      	MULS R17,R26
00043c 01f0      	MOVW R30,R0
00043d 81ab      	LDD  R26,Y+3
00043e 02ea      	MULS R30,R26
00043f 01f0      	MOVW R30,R0
000440 85aa      	LDD  R26,Y+10
000441 d4d0      	RCALL SUBOPT_0xE
000442 d4d5      	RCALL SUBOPT_0x10
000443 d4d7      	RCALL SUBOPT_0x11
000444 d4d6      	RCALL SUBOPT_0x11
000445 d4d2      	RCALL SUBOPT_0x10
000446 85a9      	LDD  R26,Y+9
000447 dfc2      	RCALL _LCD_Putchar
                 ;        i++;
000448 5f1f      	SUBI R17,-1
                 ;    }
000449 cfeb      	RJMP _0x44
                 _0x46:
                 ;}
00044a 8118      	LDD  R17,Y+0
00044b 962d      	ADIW R28,13
00044c 9508      	RET
                 ; .FEND
                 ;
                 ;//===============================================================
                 ;//            ,   flash
                 ;//===============================================================
                 ;void LCD_Putsf(flash char *str, int x, int y,  int t_color, int b_color, char zoom_width, char zoom_height)
                 ;{
                 ; unsigned char i=0;
                 ;
                 ; if(zoom_width == 0)   zoom_width = 1;
                 ;	*str -> Y+11
                 ;	x -> Y+9
                 ;	y -> Y+7
                 ;	t_color -> Y+5
                 ;	b_color -> Y+3
                 ;	zoom_width -> Y+2
                 ;	zoom_height -> Y+1
                 ;	i -> R17
                 ; if(zoom_height == 0)  zoom_height = 1;
                 ;
                 ; while (str[i]) //x  y -    ;    i      ...
                 ; {
                 ;  LCD_Putchar(str[i], x+(i*6*zoom_width), y, t_color, b_color, zoom_width, zoom_height);
                 ;  i++;
                 ; }
                 ;}
                 ;
                 ;//===============================================================
                 ;//            
                 ;//===============================================================
                 ;void Send_Symbol_Shadow (unsigned char symbol, char x, char y, int t_color, char zoom_width, char zoom_height)
                 ;{
                 ; unsigned char temp_symbol, a, b, zw, zh, mask;
                 ; char m, n;
                 ; m=x;
                 ;	symbol -> Y+14
                 ;	x -> Y+13
                 ;	y -> Y+12
                 ;	t_color -> Y+10
                 ;	zoom_width -> Y+9
                 ;	zoom_height -> Y+8
                 ;	temp_symbol -> R17
                 ;	a -> R16
                 ;	b -> R19
                 ;	zw -> R18
                 ;	zh -> R21
                 ;	mask -> R20
                 ;	m -> Y+7
                 ;	n -> Y+6
                 ; n=y;
                 ; if (symbol>127) symbol-=64;    //    ASCII
                 ; for ( a = 0; a < 5; a++) // 5 ,  
                 ; {
                 ;  temp_symbol = font_5x8[symbol-32][a];
                 ;  zw = 0;
                 ;  while(zw != zoom_width) //   zw 
                 ;  {
                 ;   switch(rot)
                 ;   {
                 ;    case 0: case 180: n=y; break;
                 ;    case 90: case 270: m=x; break;
                 ;   }
                 ;   mask=0x01;
                 ;   for ( b = 0; b < 8; b++ ) //  8  
                 ;   {
                 ;    zh = 0; // zoom_height    
                 ;    while(zh != zoom_height) //   z 
                 ;    {
                 ;     switch(rot)
                 ;     {
                 ;      case 0: case 180:
                 ;      if (temp_symbol&mask)
                 ;      {
                 ;       Put_Pixel (m+zw, n+zh, t_color);
                 ;      }
                 ;      break;
                 ;      case 90: case 270:
                 ;      if (temp_symbol&mask)
                 ;      {
                 ;       Put_Pixel (m+zh, n+zw, t_color);
                 ;      }
                 ;      break; //      y    
                 ;     }
                 ;     zh++;
                 ;    }
                 ;    mask<<=1; //  mask  1  ;
                 ;    switch(rot)
                 ;    {
                 ;     case 0: case 180: n=n+zoom_height; break;
                 ;     case 90: case 270: m=m+zoom_height; break;
                 ;    }
                 ;   }
                 ;   zw++;
                 ;  }
                 ;  switch(rot)
                 ;  {
                 ;   case 0: case 180: m=m+zoom_width; break;
                 ;   case 90: case 270: n=n+zoom_width; break;
                 ;  }
                 ; }
                 ;}
                 ;
                 ;//===============================================================
                 ;//     ASCII-   
                 ;//===============================================================
                 ;void LCD_Putchar_Shadow (char symbol, char x, char y, int t_color, char zoom_width, char zoom_height)
                 ;{
                 ; unsigned char m;
                 ; if(zoom_width == 0)   zoom_width = 1;
                 ;	symbol -> Y+7
                 ;	x -> Y+6
                 ;	y -> Y+5
                 ;	t_color -> Y+3
                 ;	zoom_width -> Y+2
                 ;	zoom_height -> Y+1
                 ;	m -> R17
                 ; if(zoom_height == 0)  zoom_height = 1;
                 ; switch (rot)
                 ; {
                 ;    case 90: case 270:  m=y; y=x; x=m;
                 ;                        break;
                 ; };
                 ; Send_Symbol_Shadow( symbol, x, y, t_color, zoom_width, zoom_height);
                 ;}
                 ;
                 ;//===============================================================
                 ;//     ,   ram   
                 ;//===============================================================
                 ;void LCD_Puts_Shadow(char *str, int x, int y,  int t_color, char zoom_width, char zoom_height)
                 ;{
                 ; unsigned char i=0;
                 ;
                 ; if(zoom_width == 0)   zoom_width = 1;
                 ;	*str -> Y+9
                 ;	x -> Y+7
                 ;	y -> Y+5
                 ;	t_color -> Y+3
                 ;	zoom_width -> Y+2
                 ;	zoom_height -> Y+1
                 ;	i -> R17
                 ; if(zoom_height == 0)  zoom_height = 1;
                 ;
                 ; while (str[i]) //x  y -    ;    i      ...
                 ; {
                 ;  LCD_Putchar_Shadow(str[i], x+(i*6*zoom_width), y, t_color, zoom_width, zoom_height);
                 ;  i++;
                 ; }
                 ;}
                 ;
                 ;//===============================================================
                 ;//   ,   flash   
                 ;//===============================================================
                 ;void LCD_Putsf_Shadow(flash char *str, int x, int y,  int t_color, char zoom_width, char zoom_height)
                 ;{
                 ; unsigned char i=0;
                 ;
                 ; if(zoom_width == 0)   zoom_width = 1;
                 ;	*str -> Y+9
                 ;	x -> Y+7
                 ;	y -> Y+5
                 ;	t_color -> Y+3
                 ;	zoom_width -> Y+2
                 ;	zoom_height -> Y+1
                 ;	i -> R17
                 ; if(zoom_height == 0)  zoom_height = 1;
                 ;
                 ; while (str[i])
                 ; {
                 ;  LCD_Putchar_Shadow(str[i], x+(i*6*zoom_width), y, t_color, zoom_width, zoom_height);
                 ;  i++;
                 ; }
                 ;}
                 ;
                 ;//===============================================================
                 ;//                    
                 ;//===============================================================
                 ;void LCD_FillScreen (unsigned int color)
                 ;{
                 _LCD_FillScreen:
                 ; .FSTART _LCD_FillScreen
                 ; unsigned int x;
                 ; SetArea( 0, 131, 0, 175 );   //  
00044d d4ab      	RCALL SUBOPT_0x7
00044e d691      	RCALL __SAVELOCR2
                 ;	color -> Y+2
                 ;	x -> R16,R17
00044f d4ac      	RCALL SUBOPT_0x8
000450 e8e3      	LDI  R30,LOW(131)
000451 93ea      	ST   -Y,R30
000452 d4a9      	RCALL SUBOPT_0x8
000453 eaaf      	LDI  R26,LOW(175)
000454 df15      	RCALL _SetArea
                 ; SetBit(LCD_PORT, LCD_RS);
000455 9a94      	SBI  0x12,4
                 ;
                 ; // -   
                 ; for (x = 0; x < 132*176; x++)
                +
000456 e000     +LDI R16 , LOW ( 0 )
000457 e010     +LDI R17 , HIGH ( 0 )
                 	__GETWRN 16,17,0
                 _0x92:
                +
000458 3c00     +CPI R16 , LOW ( 23232 )
000459 e5ea     +LDI R30 , HIGH ( 23232 )
00045a 071e     +CPC R17 , R30
                 	__CPWRN 16,17,23232
00045b f440      	BRSH _0x93
                 ; {
                 ;  #ifdef _8_BIT_COLOR	//(8-    (256 ))
                 ;  Send_to_lcd( DAT, color ); // -   
                 ;  #else			//(16-    (65536 ))
                 ;  Send_to_lcd( DAT, (color >> 8) ); Send_to_lcd( DAT, color );
00045c d4a2      	RCALL SUBOPT_0x9
00045d 81ac      	LDD  R26,Y+4
00045e d492      	RCALL SUBOPT_0x5
00045f 81ab      	LDD  R26,Y+3
000460 debb      	RCALL _Send_to_lcd
                 ;  #endif
                 ; }
                +
000461 5f0f     +SUBI R16 , LOW ( - 1 )
000462 4f1f     +SBCI R17 , HIGH ( - 1 )
                 	__ADDWRN 16,17,1
000463 cff4      	RJMP _0x92
                 _0x93:
                 ;}
000464 d682      	RCALL __LOADLOCR2
                 _0x20A0005:
000465 9624      	ADIW R28,4
000466 9508      	RET
                 ; .FEND
                 ;
                 ;//===============================================================
                 ;//                   
                 ;//===============================================================
                 ;void LCD_Output_image (char x, char y, char width, char height, flash char *img)
                 ;{
                 ; unsigned char m;
                 ; switch (rot)
                 ;	x -> Y+6
                 ;	y -> Y+5
                 ;	width -> Y+4
                 ;	height -> Y+3
                 ;	*img -> Y+1
                 ;	m -> R17
                 ; {
                 ;    case 90: case 270:  m=y; y=x; x=m;
                 ;                        break;
                 ; };
                 ; Send_Image (x, y, width, height, img);
                 ;}
                 ;
                 ;//===============================================================
                 ;//              
                 ;//===============================================================
                 ;//   Image2Lcd  NokiaImageCreator   - -.
                 ;//x, y -    ; width  height -    
                 ;void Send_Image (char x, char y, char width, char height, flash char *img)
                 ;{
                 ; char x1, y1;
                 ;
                 ; switch (rot)
                 ;	x -> Y+7
                 ;	y -> Y+6
                 ;	width -> Y+5
                 ;	height -> Y+4
                 ;	*img -> Y+2
                 ;	x1 -> R17
                 ;	y1 -> R16
                 ; {
                 ;  case 0: case 180:
                 ;  for(y1=y; y1<(y+height); y1++)
                 ;  {
                 ;   SetArea( x, x+(width-1), y1, y1 );
                 ;   for(x1=x; x1<x+width; x1++)
                 ;   {
                 ;    #ifdef _8_BIT_COLOR	//(8-    (256 ))
                 ;    Send_to_lcd( DAT, *img++ ); // -   
                 ;    #else			//(16-    (65536 ))
                 ;    Send_to_lcd( DAT, *img++ ); Send_to_lcd( DAT, *img++ );
                 ;    #endif
                 ;   }
                 ;  }
                 ;  break;
                 ;
                 ;  case 90: case 270:
                 ;  for(x1=x; x1<x+height; x1++)
                 ;  {
                 ;   SetArea( x1, x1, y, y+(width-1) );
                 ;   for(y1=y; y1<y+width; y1++)
                 ;   {
                 ;    #ifdef _8_BIT_COLOR	//(8-    (256 ))
                 ;    Send_to_lcd( DAT, *img++ ); // -   
                 ;    #else			//(16-    (65536 ))
                 ;    Send_to_lcd( DAT, *img++ ); Send_to_lcd( DAT, *img++ );
                 ;    #endif
                 ;   }
                 ;  }
                 ;  break;
                 ; };
                 ;}
                 ;
                 ;#ifdef _GEOMETRICAL
                 ;//===============================================================
                 ;//                       
                 ;//===============================================================
                 ;void LCD_DrawLine (char x1, char y1, char x2, char y2, int color)
                 ;{
                 _LCD_DrawLine:
                 ; .FSTART _LCD_DrawLine
                 ; short  x, y, d, dx, dy, i, i1, i2, kx, ky;
                 ; signed char flag;
                 ; unsigned char m;
                 ;
                 ; switch (rot)
000467 d491      	RCALL SUBOPT_0x7
000468 9760      	SBIW R28,16
000469 d672      	RCALL __SAVELOCR6
                 ;	x1 -> Y+27
                 ;	y1 -> Y+26
                 ;	x2 -> Y+25
                 ;	y2 -> Y+24
                 ;	color -> Y+22
                 ;	x -> R16,R17
                 ;	y -> R18,R19
                 ;	d -> R20,R21
                 ;	dx -> Y+20
                 ;	dy -> Y+18
                 ;	i -> Y+16
                 ;	i1 -> Y+14
                 ;	i2 -> Y+12
                 ;	kx -> Y+10
                 ;	ky -> Y+8
                 ;	flag -> Y+7
                 ;	m -> Y+6
00046a 01f2      	MOVW R30,R4
                 ; {
                 ;    case 90: case 270:  m=y1; y1=x1; x1=m; m=y2; y2=x2; x2=m;
00046b d496      	RCALL SUBOPT_0xA
00046c f011      	BREQ _0xB3
00046d d49c      	RCALL SUBOPT_0xC
00046e f461      	BRNE _0xB1
                 _0xB3:
00046f 8dea      	LDD  R30,Y+26
000470 83ee      	STD  Y+6,R30
000471 8deb      	LDD  R30,Y+27
000472 8fea      	STD  Y+26,R30
000473 81ee      	LDD  R30,Y+6
000474 8feb      	STD  Y+27,R30
000475 8de8      	LDD  R30,Y+24
000476 83ee      	STD  Y+6,R30
000477 8de9      	LDD  R30,Y+25
000478 8fe8      	STD  Y+24,R30
000479 81ee      	LDD  R30,Y+6
00047a 8fe9      	STD  Y+25,R30
                 ;                        break;
                 ; };
                 _0xB1:
                 ;
                 ; dx = x2 - x1;
00047b 8da9      	LDD  R26,Y+25
00047c 27bb      	CLR  R27
00047d 8deb      	LDD  R30,Y+27
00047e e0f0      	LDI  R31,0
00047f 1bae      	SUB  R26,R30
000480 0bbf      	SBC  R27,R31
000481 8bac      	STD  Y+20,R26
000482 8bbd      	STD  Y+20+1,R27
                 ; dy = y2 - y1;
000483 8da8      	LDD  R26,Y+24
000484 27bb      	CLR  R27
000485 8dea      	LDD  R30,Y+26
000486 e0f0      	LDI  R31,0
000487 1bae      	SUB  R26,R30
000488 0bbf      	SBC  R27,R31
000489 8baa      	STD  Y+18,R26
00048a 8bbb      	STD  Y+18+1,R27
                 ; if (dx == 0 && dy == 0) Put_Pixel(x1, y1, color);  //
00048b d49b      	RCALL SUBOPT_0x13
00048c 9710      	SBIW R26,0
00048d f421      	BRNE _0xB6
00048e 89aa      	LDD  R26,Y+18
00048f 89bb      	LDD  R27,Y+18+1
000490 9710      	SBIW R26,0
000491 f009      	BREQ _0xB7
                 _0xB6:
000492 c005      	RJMP _0xB5
                 _0xB7:
000493 8deb      	LDD  R30,Y+27
000494 93ea      	ST   -Y,R30
000495 8deb      	LDD  R30,Y+27
000496 93ea      	ST   -Y,R30
000497 c072      	RJMP _0x19A
                 ; else      //
                 _0xB5:
                 ; {
                 ;  kx = 1;
000498 e0e1      	LDI  R30,LOW(1)
000499 e0f0      	LDI  R31,HIGH(1)
00049a d48f      	RCALL SUBOPT_0x14
                 ;  ky = 1;
00049b e0e1      	LDI  R30,LOW(1)
00049c e0f0      	LDI  R31,HIGH(1)
00049d 87e8      	STD  Y+8,R30
00049e 87f9      	STD  Y+8+1,R31
                 ;  if( dx < 0 )
00049f 89ad      	LDD  R26,Y+21
0004a0 23aa      	TST  R26
0004a1 f442      	BRPL _0xB9
                 ;  {
                 ;   dx = -dx;
0004a2 89ec      	LDD  R30,Y+20
0004a3 89fd      	LDD  R31,Y+20+1
0004a4 d5a0      	RCALL __ANEGW1
0004a5 8bec      	STD  Y+20,R30
0004a6 8bfd      	STD  Y+20+1,R31
                 ;   kx = -1;
0004a7 d485      	RCALL SUBOPT_0x15
0004a8 d481      	RCALL SUBOPT_0x14
                 ;  }
                 ;  else
0004a9 c007      	RJMP _0xBA
                 _0xB9:
                 ;  if(dx == 0) kx = 0;
0004aa 89ec      	LDD  R30,Y+20
0004ab 89fd      	LDD  R31,Y+20+1
0004ac 9730      	SBIW R30,0
0004ad f419      	BRNE _0xBB
0004ae e0e0      	LDI  R30,LOW(0)
0004af 87ea      	STD  Y+10,R30
0004b0 87eb      	STD  Y+10+1,R30
                 ;  if(dy < 0)
                 _0xBB:
                 _0xBA:
0004b1 89ab      	LDD  R26,Y+19
0004b2 23aa      	TST  R26
0004b3 f43a      	BRPL _0xBC
                 ;  {
                 ;   dy = -dy;
0004b4 d47b      	RCALL SUBOPT_0x16
0004b5 d58f      	RCALL __ANEGW1
0004b6 8bea      	STD  Y+18,R30
0004b7 8bfb      	STD  Y+18+1,R31
                 ;   ky = -1;
0004b8 d474      	RCALL SUBOPT_0x15
0004b9 87e8      	STD  Y+8,R30
0004ba 87f9      	STD  Y+8+1,R31
                 ;  }
                 ;  if(dx < dy)
                 _0xBC:
0004bb d474      	RCALL SUBOPT_0x16
0004bc d46a      	RCALL SUBOPT_0x13
0004bd d475      	RCALL SUBOPT_0x17
0004be f454      	BRGE _0xBD
                 ;  {
                 ;   flag = 0;
0004bf e0e0      	LDI  R30,LOW(0)
0004c0 83ef      	STD  Y+7,R30
                 ;   d = dx;
                +
0004c1 894c     +LDD R20 , Y + 20
0004c2 895d     +LDD R21 , Y + 20 + 1
                 	__GETWRS 20,21,20
                 ;   dx = dy;
0004c3 d46c      	RCALL SUBOPT_0x16
0004c4 8bec      	STD  Y+20,R30
0004c5 8bfd      	STD  Y+20+1,R31
                 ;   dy = d;
                +
0004c6 8b4a     +STD Y + 18 , R20
0004c7 8b5b     +STD Y + 18 + 1 , R21
                 	__PUTWSR 20,21,18
                 ;  }
                 ;  else flag = 1;
0004c8 c002      	RJMP _0xBE
                 _0xBD:
0004c9 e0e1      	LDI  R30,LOW(1)
0004ca 83ef      	STD  Y+7,R30
                 ;  i1 = dy + dy;
                 _0xBE:
0004cb d464      	RCALL SUBOPT_0x16
0004cc 0fee      	LSL  R30
0004cd 1fff      	ROL  R31
0004ce 87ee      	STD  Y+14,R30
0004cf 87ff      	STD  Y+14+1,R31
                 ;  d = i1 - dx;
0004d0 d456      	RCALL SUBOPT_0x13
0004d1 85ee      	LDD  R30,Y+14
0004d2 85ff      	LDD  R31,Y+14+1
0004d3 1bea      	SUB  R30,R26
0004d4 0bfb      	SBC  R31,R27
0004d5 01af      	MOVW R20,R30
                 ;  i2 = d - dx;
0004d6 d450      	RCALL SUBOPT_0x13
0004d7 01fa      	MOVW R30,R20
0004d8 1bea      	SUB  R30,R26
0004d9 0bfb      	SBC  R31,R27
0004da 87ec      	STD  Y+12,R30
0004db 87fd      	STD  Y+12+1,R31
                 ;  x = x1;
0004dc 8d0b      	LDD  R16,Y+27
0004dd 2711      	CLR  R17
                 ;  y = y1;
0004de 8d2a      	LDD  R18,Y+26
0004df 2733      	CLR  R19
                 ;
                 ;  for(i=0; i < dx; i++)
0004e0 e0e0      	LDI  R30,LOW(0)
0004e1 8be8      	STD  Y+16,R30
0004e2 8be9      	STD  Y+16+1,R30
                 _0xC0:
0004e3 89ec      	LDD  R30,Y+20
0004e4 89fd      	LDD  R31,Y+20+1
0004e5 d450      	RCALL SUBOPT_0x18
0004e6 d44c      	RCALL SUBOPT_0x17
0004e7 f504      	BRGE _0xC1
                 ;  {
                 ;   Put_Pixel(x, y, color);
0004e8 930a      	ST   -Y,R16
0004e9 932a      	ST   -Y,R18
0004ea 8da8      	LDD  R26,Y+24
0004eb 8db9      	LDD  R27,Y+24+1
0004ec de8e      	RCALL _Put_Pixel
                 ;   if(flag) x += kx;
0004ed 81ef      	LDD  R30,Y+7
0004ee 30e0      	CPI  R30,0
0004ef f011      	BREQ _0xC2
0004f0 d448      	RCALL SUBOPT_0x19
                 ;   else y += ky;
0004f1 c001      	RJMP _0xC3
                 _0xC2:
0004f2 d44b      	RCALL SUBOPT_0x1A
                 ;   if( d < 0 ) d += i1;
                 _0xC3:
0004f3 2355      	TST  R21
0004f4 f42a      	BRPL _0xC4
0004f5 85ee      	LDD  R30,Y+14
0004f6 85ff      	LDD  R31,Y+14+1
                +
0004f7 0f4e     +ADD R20 , R30
0004f8 1f5f     +ADC R21 , R31
                 	__ADDWRR 20,21,30,31
                 ;   else
0004f9 c00a      	RJMP _0xC5
                 _0xC4:
                 ;   {
                 ;    d += i2;
0004fa 85ec      	LDD  R30,Y+12
0004fb 85fd      	LDD  R31,Y+12+1
                +
0004fc 0f4e     +ADD R20 , R30
0004fd 1f5f     +ADC R21 , R31
                 	__ADDWRR 20,21,30,31
                 ;    if(flag) y += ky;
0004fe 81ef      	LDD  R30,Y+7
0004ff 30e0      	CPI  R30,0
000500 f011      	BREQ _0xC6
000501 d43c      	RCALL SUBOPT_0x1A
                 ;    else x += kx;
000502 c001      	RJMP _0xC7
                 _0xC6:
000503 d435      	RCALL SUBOPT_0x19
                 ;   }
                 _0xC7:
                 _0xC5:
                 ;  }
000504 d43e      	RCALL SUBOPT_0x1B
000505 9631      	ADIW R30,1
000506 d43f      	RCALL SUBOPT_0x1C
000507 cfdb      	RJMP _0xC0
                 _0xC1:
                 ;  Put_Pixel(x, y, color);
000508 930a      	ST   -Y,R16
000509 932a      	ST   -Y,R18
                 _0x19A:
00050a 8da8      	LDD  R26,Y+24
00050b 8db9      	LDD  R27,Y+24+1
00050c de6e      	RCALL _Put_Pixel
                 ; }
                 ;}
00050d d5d5      	RCALL __LOADLOCR6
00050e 966c      	ADIW R28,28
00050f 9508      	RET
                 ; .FEND
                 ;
                 ;//===============================================================
                 ;//                 
                 ;//===============================================================
                 ;void LCD_FillLine (char tx1, char ty1, char tx2, char ty2, char width, int color)
                 ;{
                 ;    signed long x, y, addx, dx, dy;
                 ;    signed long P;
                 ;    int i;
                 ;    long x1,x2,y1,y2;
                 ;
                 ;   if(ty1>ty2)  {y1=ty2; y2=ty1; x1=tx2; x2=tx1;}
                 ;	tx1 -> Y+48
                 ;	ty1 -> Y+47
                 ;	tx2 -> Y+46
                 ;	ty2 -> Y+45
                 ;	width -> Y+44
                 ;	color -> Y+42
                 ;	x -> Y+38
                 ;	y -> Y+34
                 ;	addx -> Y+30
                 ;	dx -> Y+26
                 ;	dy -> Y+22
                 ;	P -> Y+18
                 ;	i -> R16,R17
                 ;	x1 -> Y+14
                 ;	x2 -> Y+10
                 ;	y1 -> Y+6
                 ;	y2 -> Y+2
                 ;   else         {y1=ty1; y2=ty2; x1=tx1; x2=tx2;}
                 ;    dx = x2 - x1;
                 ;    dy = y2 - y1;
                 ;   if(dx<0)     dx=-dx;
                 ;   if(dy<0)     dy=-dy;
                 ;    x = x1;
                 ;    y = y1;
                 ;
                 ;   if(x1 > x2)  addx = -1;
                 ;   else         addx = 1;
                 ;
                 ;   if(dx >= dy)
                 ;   {
                 ;    P = 2*dy - dx;
                 ;
                 ;      for(i=0; i<=dx; ++i)
                 ;      {
                 ;        LCD_FillRect (x, y, width, width, color);
                 ;
                 ;         if(P < 0)
                 ;         {
                 ;            P += 2*dy;
                 ;            x += addx;
                 ;         }
                 ;         else
                 ;         {
                 ;            P += 2*dy - 2*dx;
                 ;            x += addx;
                 ;            y ++;
                 ;         }
                 ;      }
                 ;   }
                 ;   else
                 ;   {
                 ;    P = 2*dx - dy;
                 ;
                 ;      for(i=0; i<=dy; ++i)
                 ;      {
                 ;        LCD_FillRect (x, y, width, width, color);
                 ;
                 ;         if(P < 0)
                 ;         {
                 ;            P += 2*dx;
                 ;            y ++;
                 ;         }
                 ;         else
                 ;         {
                 ;            P += 2*dx - 2*dy;
                 ;            x += addx;
                 ;            y ++;
                 ;         }
                 ;      }
                 ;   }
                 ;}
                 ;
                 ;//===============================================================
                 ;//			 
                 ;//===============================================================
                 ;void LCD_DrawRect (char x1, char y1, char width, char height, char size, int color)
                 ;{
                 ; unsigned int i;
                 ; char x2=x1+(width-1), y2=y1+(height-1); //       
                 ;
                 ;  for( i=1; i<=size; i++)   // size -  
                 ;	x1 -> Y+10
                 ;	y1 -> Y+9
                 ;	width -> Y+8
                 ;	height -> Y+7
                 ;	size -> Y+6
                 ;	color -> Y+4
                 ;	i -> R16,R17
                 ;	x2 -> R19
                 ;	y2 -> R18
                 ; {
                 ;  LCD_DrawLine(x1, y1, x1, y2, color);
                 ;  LCD_DrawLine(x2, y1, x2, y2, color);
                 ;  LCD_DrawLine(x1, y1, x2, y1, color);
                 ;  LCD_DrawLine(x1, y2, x2, y2, color);
                 ;  x1++; //   ,   
                 ;  y1++;
                 ;  x2--;
                 ;  y2--;
                 ; }
                 ;}
                 ;
                 ;//===============================================================
                 ;//                 COLOR
                 ;//===============================================================
                 ;void LCD_FillRect (char x1, char y1, char width, char height, int color)
                 ;{
                 ; unsigned int x;
                 ; unsigned char m;
                 ;
                 ; switch (rot)
                 ;	x1 -> Y+9
                 ;	y1 -> Y+8
                 ;	width -> Y+7
                 ;	height -> Y+6
                 ;	color -> Y+4
                 ;	x -> R16,R17
                 ;	m -> R19
                 ; {
                 ;    case 90: case 270:  m=y1; y1=x1; x1=m; m=width; width=height; height=m; break;
                 ; };
                 ;
                 ; SetArea( x1, x1+(width-1), y1, y1+(height-1) );
                 ; SetBit(LCD_PORT, LCD_RS);
                 ;
                 ; for (x = 0; x < width * height; x++)
                 ; {
                 ;  #ifdef _8_BIT_COLOR	//(8-    (256 ))
                 ;  Send_to_lcd( DAT, color ); // -   
                 ;  #else			//(16-    (65536 ))
                 ;  Send_to_lcd( DAT, (color >> 8) ); Send_to_lcd( DAT, color );
                 ;  #endif
                 ; }
                 ;}
                 ;
                 ;//===============================================================
                 ;//                   
                 ;//===============================================================
                 ;void LCD_DrawCircle (char xcenter, char ycenter, char rad, int color)
                 ;{
                 ;    signed int k, b, P;
                 ;    unsigned char m;
                 ;
                 ;    switch (rot)
                 ;	xcenter -> Y+11
                 ;	ycenter -> Y+10
                 ;	rad -> Y+9
                 ;	color -> Y+7
                 ;	k -> R16,R17
                 ;	b -> R18,R19
                 ;	P -> R20,R21
                 ;	m -> Y+6
                 ;    {
                 ;        case 90: case 270:  m=ycenter; ycenter=xcenter; xcenter=m; break;
                 ;    };
                 ;
                 ;    k = 0;
                 ;    b = rad;
                 ;    P = 1 - rad;
                 ;    do
                 ;    {
                 ;        Put_Pixel(k+xcenter, b+ycenter, color);
                 ;        Put_Pixel(b+xcenter, k+ycenter, color);
                 ;        Put_Pixel(xcenter-k, b+ycenter, color);
                 ;        Put_Pixel(xcenter-b, k+ycenter, color);
                 ;        Put_Pixel(b+xcenter, ycenter-k, color);
                 ;        Put_Pixel(k+xcenter, ycenter-b, color);
                 ;        Put_Pixel(xcenter-k, ycenter-b, color);
                 ;        Put_Pixel(xcenter-b, ycenter-k, color);
                 ;
                 ;        if(P < 0)   P+= 3 + 2*k++;
                 ;        else        P+= 5 + 2*(k++ - b--);
                 ;    } while(k <= b);
                 ;}
                 ;
                 ;
                 ;//===============================================================
                 ;//                    COLOR
                 ;//===============================================================
                 ;void LCD_FillCircle (char xcenter, char ycenter, char rad, int color)
                 ;{
                 ;    signed int x1=0, y1, tswitch;
                 ;    y1 = rad;
                 ;	xcenter -> Y+10
                 ;	ycenter -> Y+9
                 ;	rad -> Y+8
                 ;	color -> Y+6
                 ;	x1 -> R16,R17
                 ;	y1 -> R18,R19
                 ;	tswitch -> R20,R21
                 ;    tswitch = 1 - rad;
                 ;
                 ;    do
                 ;    {
                 ;        LCD_DrawLine(xcenter-x1, ycenter+y1, xcenter+x1, ycenter+y1, color);
                 ;        LCD_DrawLine(xcenter-x1, ycenter-y1, xcenter+x1, ycenter-y1, color);
                 ;        LCD_DrawLine(xcenter-y1, ycenter+x1, xcenter+y1, ycenter+x1, color);
                 ;        LCD_DrawLine(xcenter-y1, ycenter-x1, xcenter+y1, ycenter-x1, color);
                 ;
                 ;    if(tswitch < 0)
                 ;    tswitch+= 3 + 2*x1++;
                 ;    else
                 ;    tswitch+= 5 + 2*(x1++ - y1--);
                 ;    } while(x1 <= y1);
                 ;}
                 ;
                 ;//===============================================================
                 ;//                      
                 ;//===============================================================
                 ;void LCD_DrawTriangle(char x1, char y1, char x2, char y2, char x3, char y3, int color)
                 ;{
                 ; LCD_DrawLine(x1, y1, x2, y2, color);
                 ;	x1 -> Y+7
                 ;	y1 -> Y+6
                 ;	x2 -> Y+5
                 ;	y2 -> Y+4
                 ;	x3 -> Y+3
                 ;	y3 -> Y+2
                 ;	color -> Y+0
                 ; LCD_DrawLine(x3, y3, x1, y1, color);
                 ; LCD_DrawLine(x3, y3, x2, y2, color);
                 ;}
                 ;
                 ;//===============================================================
                 ;//                 COLOR
                 ;//===============================================================
                 ;void LCD_FillTriangle(char x1, char y1, char x2, char y2, char x3, char y3, int color)
                 ;{
                 ; LCD_FillTriangleA(x1, y1, x2, y2, x3, y3, color);
                 ;	x1 -> Y+7
                 ;	y1 -> Y+6
                 ;	x2 -> Y+5
                 ;	y2 -> Y+4
                 ;	x3 -> Y+3
                 ;	y3 -> Y+2
                 ;	color -> Y+0
                 ; LCD_FillTriangleA(x3, y3, x1, y1, x2, y2, color);
                 ; LCD_FillTriangleA(x3, y3, x2, y2, x1, y1, color);
                 ;}
                 ;
                 ;//===============================================================
                 ;void LCD_FillTriangleA(char x1, char y1, char x2, char y2, char x3, char y3, int color)
                 ;{
                 ; signed long x, y, addx, dx, dy;
                 ; signed long P;
                 ; int i;
                 ; long a1,a2,b1,b2;
                 ; if(y1>y2)  {b1=y2; b2=y1; a1=x2; a2=x1;}
                 ;	x1 -> Y+49
                 ;	y1 -> Y+48
                 ;	x2 -> Y+47
                 ;	y2 -> Y+46
                 ;	x3 -> Y+45
                 ;	y3 -> Y+44
                 ;	color -> Y+42
                 ;	x -> Y+38
                 ;	y -> Y+34
                 ;	addx -> Y+30
                 ;	dx -> Y+26
                 ;	dy -> Y+22
                 ;	P -> Y+18
                 ;	i -> R16,R17
                 ;	a1 -> Y+14
                 ;	a2 -> Y+10
                 ;	b1 -> Y+6
                 ;	b2 -> Y+2
                 ; else       {b1=y1; b2=y2; a1=x1; a2=x2;}
                 ; dx = a2 -a1;
                 ; dy = b2 - b1;
                 ; if(dx<0)dx=-dx;
                 ; if(dy<0)dy=-dy;
                 ; x = a1;
                 ; y = b1;
                 ;
                 ; if(a1 > a2)    addx = -1;
                 ; else           addx = 1;
                 ;
                 ; if(dx >= dy)
                 ; {
                 ;  P = 2*dy - dx;
                 ;  for(i=0; i<=dx; ++i)
                 ;  {
                 ;   LCD_DrawLine((int)x, (int)y, x3, y3, color);
                 ;   if(P < 0)
                 ;   {
                 ;    P += 2*dy;
                 ;    x += addx;
                 ;   }
                 ;   else
                 ;   {
                 ;    P += 2*dy - 2*dx;
                 ;    x += addx;
                 ;    y ++;
                 ;   }
                 ;  }
                 ; }
                 ; else
                 ; {
                 ;  P = 2*dx - dy;
                 ;  for(i=0; i<=dy; ++i)
                 ;  {
                 ;   LCD_DrawLine((int)x, (int)y, x3, y3, color);
                 ;   if(P < 0)
                 ;   {
                 ;    P += 2*dx;
                 ;    y ++;
                 ;   }
                 ;   else
                 ;   {
                 ;    P += 2*dx - 2*dy;
                 ;    x += addx;
                 ;    y ++;
                 ;   }
                 ;  }
                 ; }
                 ;}
                 ;
                 ;//===============================================================
                 ;//          0-100%
                 ;//===============================================================
                 ;// percent -   0  100, x  y -    (  ), width -  , zoom_hei ...
                 ;// ( zoom_height=1     5 )
                 ;void LCD_Put_Graph (char percent, char x, char y, int t_color, int b_color, char width, char zoom_height)
                 ;{
                 ;    char i, j=0, m, array[20];
                 ;    for (i = 0; i < percent; i += 5)
                 ;	percent -> Y+32
                 ;	x -> Y+31
                 ;	y -> Y+30
                 ;	t_color -> Y+28
                 ;	b_color -> Y+26
                 ;	width -> Y+25
                 ;	zoom_height -> Y+24
                 ;	i -> R17
                 ;	j -> R16
                 ;	m -> R19
                 ;	array -> Y+4
                 ;    {
                 ;        if (i + 5 > percent)
                 ;        {
                 ;            array[j++] = percent-i;
                 ;        }
                 ;        else
                 ;        {
                 ;            array[j++] = 5;
                 ;        }
                 ;    }
                 ;    for (i=j; i<20; i++) //   
                 ;    {
                 ;        array[i] = 0;
                 ;    }
                 ;
                 ;    switch (rot)
                 ;    {
                 ;        case 270:   //   -
                 ;                    Send_to_lcd(CMD, 0x36);
                 ;                    Send_to_lcd(DAT, 0x80); //      -    
                 ;                    break;
                 ;        default:    //   -, -
                 ;                    Send_to_lcd(CMD, 0x36);
                 ;                    Send_to_lcd(DAT, 0x00); //      -    
                 ;    }
                 ;
                 ;
                 ;    for (i=0; i<20; i++)
                 ;    {
                 ;        if (array[i]==5) //   (5%)
                 ;        {
                 ;                switch (rot)
                 ;                {
                 ;                    case 0:     SetArea (x, x+(5*zoom_height-1), y, y+(width-1));
                 ;                                break;
                 ;                    default:    SetArea (x, x+(width-1), y, y+(5*zoom_height-1));
                 ;                }
                 ;
                 ;                for(j = 0; j < width*(5*zoom_height); j++)
                 ;                {
                 ;                    #ifdef _8_BIT_COLOR	//(8-    (256 ))
                 ;                    Send_to_lcd( DAT, t_color ); // -   
                 ;                    #else			        //(16-    (65536 ))
                 ;                    Send_to_lcd( DAT, (t_color >> 8) ); Send_to_lcd( DAT, t_color );
                 ;                    #endif
                 ;                }
                 ;
                 ;                switch (rot)
                 ;                {
                 ;                    case 0:     x+=(5*zoom_height);
                 ;                                break;
                 ;                    default:    y+=(5*zoom_height);
                 ;                }
                 ;
                 ;        }
                 ;
                 ;        else if (array[i]==0) //   (5%)
                 ;        {
                 ;                switch (rot)
                 ;                {
                 ;                    case 0:     SetArea (x, x+(5*zoom_height-1), y, y+(width-1));
                 ;                                break;
                 ;                    default:    SetArea (x, x+(width-1), y, y+(5*zoom_height-1));
                 ;                }
                 ;
                 ;                for(j = 0; j < width*(5*zoom_height); j++)
                 ;                {
                 ;                    #ifdef _8_BIT_COLOR		//(8-    (256 ))
                 ;                    Send_to_lcd( DAT, b_color ); // -   
                 ;                    #else			        //(16-    (65536 ))
                 ;                    Send_to_lcd( DAT, (b_color >> 8) ); Send_to_lcd( DAT, b_color );
                 ;                    #endif
                 ;                }
                 ;                 switch (rot)
                 ;                {
                 ;                    case 0:     x+=(5*zoom_height);
                 ;                                break;
                 ;                    default:    y+=(5*zoom_height);
                 ;                }
                 ;        }
                 ;
                 ;        else  //   (1-4%)
                 ;        {
                 ;            m=array[i];
                 ;            while (m--)
                 ;            {
                 ;
                 ;                switch (rot)
                 ;                {
                 ;                    case 0:     SetArea (x, x+(zoom_height-1), y, y+(width-1));
                 ;                                break;
                 ;                    default:    SetArea (x, x+(width-1), y, y+(zoom_height-1));
                 ;                }
                 ;
                 ;                for(j = 0; j < width*zoom_height; j++)
                 ;                {
                 ;                    #ifdef _8_BIT_COLOR	//(8-    (256 ))
                 ;                    Send_to_lcd( DAT, t_color ); // -   
                 ;                    #else			        //(16-    (65536 ))
                 ;                    Send_to_lcd( DAT, (t_color >> 8) ); Send_to_lcd( DAT, t_color );
                 ;                    #endif
                 ;                }
                 ;                     switch (rot)
                 ;                {
                 ;                    case 0:     x+=zoom_height;
                 ;                                break;
                 ;                    default:    y+=zoom_height;
                 ;                }
                 ;            }
                 ;
                 ;            m=5-array[i];
                 ;            while (m--)
                 ;            {
                 ;                switch (rot)
                 ;                {
                 ;                    case 0:     SetArea (x, x+(zoom_height-1), y, y+(width-1));
                 ;                                break;
                 ;                    default:    SetArea (x, x+(width-1), y, y+(zoom_height-1));
                 ;                }
                 ;
                 ;                for(j = 0; j < width*zoom_height; j++)
                 ;                {
                 ;                    #ifdef _8_BIT_COLOR	//(8-    (256 ))
                 ;                    Send_to_lcd( DAT, b_color ); // -   
                 ;                    #else			        //(16-    (65536 ))
                 ;                    Send_to_lcd( DAT, (b_color >> 8) ); Send_to_lcd( DAT, b_color );
                 ;                    #endif
                 ;                }
                 ;                     switch (rot)
                 ;                switch (rot)
                 ;                {
                 ;                    case 0:     x+=zoom_height;
                 ;                                break;
                 ;                    default:    y+=zoom_height;
                 ;                }
                 ;            }
                 ;        }
                 ;
                 ;    }
                 ;    Send_to_lcd(CMD, 0x36);
                 ;    Send_to_lcd(DAT, 0x00); //      -    
                 ;}
                 ;
                 ;//===============================================================
                 ;#endif //_GEOMETRICAL
                 ;#include <stdio.h>
                 ;
                 ;
                 ;unsigned int read_adc(unsigned char adc_input);
                 ;void process_butt(void);
                 ;void process_sys(void);
                 ;
                 ;int solder_cur=0;
                 ;int air_cur=0;
                 ;int solder_set=0;
                 ;int air_set=0;
                 ;int fan_set=0;
                 ;
                 ;bit solder_on=0;
                 ;bit air_on=0;
                 ;
                 ;
                 ;char sys_tmr=0;
                 ;bit old_but_sold=0;
                 ;
                 ;long map(long x, long in_min, long in_max, long out_min, long out_max)
                 ; 0000 0060 {
                 _map:
                 ; .FSTART _map
                 ; 0000 0061   return (((x - in_min) * (out_max - out_min) / (in_max - in_min) + out_min)/5)*5;
000510 d5c6      	RCALL __PUTPARD2
                 ;	x -> Y+16
                 ;	in_min -> Y+12
                 ;	in_max -> Y+8
                 ;	out_min -> Y+4
                 ;	out_max -> Y+0
000511 d437      	RCALL SUBOPT_0x1D
                +
000512 89e8     +LDD R30 , Y + 16
000513 89f9     +LDD R31 , Y + 16 + 1
000514 896a     +LDD R22 , Y + 16 + 2
000515 897b     +LDD R23 , Y + 16 + 3
                 	__GETD1S 16
000516 d529      	RCALL __SUBD12
000517 937f      	PUSH R23
000518 936f      	PUSH R22
000519 93ff      	PUSH R31
00051a 93ef      	PUSH R30
00051b d432      	RCALL SUBOPT_0x1E
00051c d5b0      	RCALL __GETD1S0
00051d d522      	RCALL __SUBD12
00051e 91af      	POP  R26
00051f 91bf      	POP  R27
000520 918f      	POP  R24
000521 919f      	POP  R25
000522 d560      	RCALL __MULD12
000523 937f      	PUSH R23
000524 936f      	PUSH R22
000525 93ff      	PUSH R31
000526 93ef      	PUSH R30
000527 d421      	RCALL SUBOPT_0x1D
                +
000528 85e8     +LDD R30 , Y + 8
000529 85f9     +LDD R31 , Y + 8 + 1
00052a 856a     +LDD R22 , Y + 8 + 2
00052b 857b     +LDD R23 , Y + 8 + 3
                 	__GETD1S 8
00052c d513      	RCALL __SUBD12
00052d 91af      	POP  R26
00052e 91bf      	POP  R27
00052f 918f      	POP  R24
000530 919f      	POP  R25
000531 d57b      	RCALL __DIVD21
000532 d41b      	RCALL SUBOPT_0x1E
000533 d507      	RCALL __ADDD21
                +
000534 e0e5     +LDI R30 , LOW ( 0x5 )
000535 e0f0     +LDI R31 , HIGH ( 0x5 )
000536 e060     +LDI R22 , BYTE3 ( 0x5 )
000537 e070     +LDI R23 , BYTE4 ( 0x5 )
                 	__GETD1N 0x5
000538 d574      	RCALL __DIVD21
                +
000539 e0a5     +LDI R26 , LOW ( 0x5 )
00053a e0b0     +LDI R27 , HIGH ( 0x5 )
00053b e080     +LDI R24 , BYTE3 ( 0x5 )
00053c e090     +LDI R25 , BYTE4 ( 0x5 )
                 	__GETD2N 0x5
00053d d545      	RCALL __MULD12
00053e c35f      	RJMP _0x20A0002
                 ; 0000 0062 }
                 ; .FEND
                 ;void draw_2bit_image(char x, char y, char width, char height,int color,int bg, flash char *img)
                 ; 0000 0064 {
                 _draw_2bit_image:
                 ; .FSTART _draw_2bit_image
                 ; 0000 0065   char xc,yc,dn=0;
                 ; 0000 0066   for(yc=y; yc<(y+height); yc++)
00053f d3b9      	RCALL SUBOPT_0x7
000540 d59d      	RCALL __SAVELOCR4
                 ;	x -> Y+13
                 ;	y -> Y+12
                 ;	width -> Y+11
                 ;	height -> Y+10
                 ;	color -> Y+8
                 ;	bg -> Y+6
                 ;	*img -> Y+4
                 ;	xc -> R17
                 ;	yc -> R16
                 ;	dn -> R19
000541 e030      	LDI  R19,0
000542 850c      	LDD  R16,Y+12
                 _0x15A:
000543 85ac      	LDD  R26,Y+12
000544 27bb      	CLR  R27
000545 85ea      	LDD  R30,Y+10
000546 d3c7      	RCALL SUBOPT_0xD
000547 2fa0      	MOV  R26,R16
000548 e0b0      	LDI  R27,0
000549 d3e9      	RCALL SUBOPT_0x17
00054a f00c      	BRLT PC+2
00054b c05e      	RJMP _0x15B
                 ; 0000 0067   {
                 ; 0000 0068    for(xc=x; xc<x+width; )
00054c 851d      	LDD  R17,Y+13
                 _0x15D:
00054d 85ad      	LDD  R26,Y+13
00054e 27bb      	CLR  R27
00054f 85eb      	LDD  R30,Y+11
000550 d3bd      	RCALL SUBOPT_0xD
000551 2fa1      	MOV  R26,R17
000552 e0b0      	LDI  R27,0
000553 d3df      	RCALL SUBOPT_0x17
000554 f00c      	BRLT PC+2
000555 c052      	RJMP _0x15E
                 ; 0000 0069    {
                 ; 0000 006A     if ((img[dn] & 0B10000000)) {Put_Pixel(yc,xc++,color);} else {Put_Pixel(yc,xc++,bg);}
000556 d3fc      	RCALL SUBOPT_0x1F
000557 91e4      	LPM  R30,Z
000558 78e0      	ANDI R30,LOW(0x80)
000559 f019      	BREQ _0x15F
00055a d3fc      	RCALL SUBOPT_0x20
00055b d3ff      	RCALL SUBOPT_0x21
00055c c002      	RJMP _0x1A9
                 _0x15F:
00055d d3f9      	RCALL SUBOPT_0x20
00055e d3ff      	RCALL SUBOPT_0x22
                 _0x1A9:
00055f de1b      	RCALL _Put_Pixel
                 ; 0000 006B     if ((img[dn] & 0B01000000)) {Put_Pixel(yc,xc++,color);} else {Put_Pixel(yc,xc++,bg);}
000560 d3f2      	RCALL SUBOPT_0x1F
000561 91e4      	LPM  R30,Z
000562 74e0      	ANDI R30,LOW(0x40)
000563 f019      	BREQ _0x161
000564 d3f2      	RCALL SUBOPT_0x20
000565 d3f5      	RCALL SUBOPT_0x21
000566 c002      	RJMP _0x1AA
                 _0x161:
000567 d3ef      	RCALL SUBOPT_0x20
000568 d3f5      	RCALL SUBOPT_0x22
                 _0x1AA:
000569 de11      	RCALL _Put_Pixel
                 ; 0000 006C     if ((img[dn] & 0B00100000)) {Put_Pixel(yc,xc++,color);} else {Put_Pixel(yc,xc++,bg);}
00056a d3e8      	RCALL SUBOPT_0x1F
00056b 91e4      	LPM  R30,Z
00056c 72e0      	ANDI R30,LOW(0x20)
00056d f019      	BREQ _0x163
00056e d3e8      	RCALL SUBOPT_0x20
00056f d3eb      	RCALL SUBOPT_0x21
000570 c002      	RJMP _0x1AB
                 _0x163:
000571 d3e5      	RCALL SUBOPT_0x20
000572 d3eb      	RCALL SUBOPT_0x22
                 _0x1AB:
000573 de07      	RCALL _Put_Pixel
                 ; 0000 006D     if ((img[dn] & 0B00010000)) {Put_Pixel(yc,xc++,color);} else {Put_Pixel(yc,xc++,bg);}
000574 d3de      	RCALL SUBOPT_0x1F
000575 91e4      	LPM  R30,Z
000576 71e0      	ANDI R30,LOW(0x10)
000577 f019      	BREQ _0x165
000578 d3de      	RCALL SUBOPT_0x20
000579 d3e1      	RCALL SUBOPT_0x21
00057a c002      	RJMP _0x1AC
                 _0x165:
00057b d3db      	RCALL SUBOPT_0x20
00057c d3e1      	RCALL SUBOPT_0x22
                 _0x1AC:
00057d ddfd      	RCALL _Put_Pixel
                 ; 0000 006E     if ((img[dn] & 0B00001000))  {Put_Pixel(yc,xc++,color);} else {Put_Pixel(yc,xc++,bg);}
00057e d3d4      	RCALL SUBOPT_0x1F
00057f 91e4      	LPM  R30,Z
000580 70e8      	ANDI R30,LOW(0x8)
000581 f019      	BREQ _0x167
000582 d3d4      	RCALL SUBOPT_0x20
000583 d3d7      	RCALL SUBOPT_0x21
000584 c002      	RJMP _0x1AD
                 _0x167:
000585 d3d1      	RCALL SUBOPT_0x20
000586 d3d7      	RCALL SUBOPT_0x22
                 _0x1AD:
000587 ddf3      	RCALL _Put_Pixel
                 ; 0000 006F     if ((img[dn] & 0B00000100))  {Put_Pixel(yc,xc++,color);} else {Put_Pixel(yc,xc++,bg);}
000588 d3ca      	RCALL SUBOPT_0x1F
000589 91e4      	LPM  R30,Z
00058a 70e4      	ANDI R30,LOW(0x4)
00058b f019      	BREQ _0x169
00058c d3ca      	RCALL SUBOPT_0x20
00058d d3cd      	RCALL SUBOPT_0x21
00058e c002      	RJMP _0x1AE
                 _0x169:
00058f d3c7      	RCALL SUBOPT_0x20
000590 d3cd      	RCALL SUBOPT_0x22
                 _0x1AE:
000591 dde9      	RCALL _Put_Pixel
                 ; 0000 0070     if ((img[dn] & 0B00000010))  {Put_Pixel(yc,xc++,color);} else {Put_Pixel(yc,xc++,bg);}
000592 d3c0      	RCALL SUBOPT_0x1F
000593 91e4      	LPM  R30,Z
000594 70e2      	ANDI R30,LOW(0x2)
000595 f019      	BREQ _0x16B
000596 d3c0      	RCALL SUBOPT_0x20
000597 d3c3      	RCALL SUBOPT_0x21
000598 c002      	RJMP _0x1AF
                 _0x16B:
000599 d3bd      	RCALL SUBOPT_0x20
00059a d3c3      	RCALL SUBOPT_0x22
                 _0x1AF:
00059b dddf      	RCALL _Put_Pixel
                 ; 0000 0071     if ((img[dn] & 0B00000001))  {Put_Pixel(yc,xc++,color);} else {Put_Pixel(yc,xc++,bg);}
00059c d3b6      	RCALL SUBOPT_0x1F
00059d 91e4      	LPM  R30,Z
00059e 70e1      	ANDI R30,LOW(0x1)
00059f f019      	BREQ _0x16D
0005a0 d3b6      	RCALL SUBOPT_0x20
0005a1 d3b9      	RCALL SUBOPT_0x21
0005a2 c002      	RJMP _0x1B0
                 _0x16D:
0005a3 d3b3      	RCALL SUBOPT_0x20
0005a4 d3b9      	RCALL SUBOPT_0x22
                 _0x1B0:
0005a5 ddd5      	RCALL _Put_Pixel
                 ; 0000 0072     dn++;
0005a6 5f3f      	SUBI R19,-1
                 ; 0000 0073    }
0005a7 cfa5      	RJMP _0x15D
                 _0x15E:
                 ; 0000 0074   }
0005a8 5f0f      	SUBI R16,-1
0005a9 cf99      	RJMP _0x15A
                 _0x15B:
                 ; 0000 0075 }
0005aa d53a      	RCALL __LOADLOCR4
0005ab 962e      	ADIW R28,14
0005ac 9508      	RET
                 ; .FEND
                 ;void set_sold_cur_temp(int temp)
                 ; 0000 0077 {
                 _set_sold_cur_temp:
                 ; .FSTART _set_sold_cur_temp
                 ; 0000 0078     char buf[5];
                 ; 0000 0079     sprintf( buf,"%i  ",temp);
0005ad d3b3      	RCALL SUBOPT_0x23
                 ;	temp -> Y+5
                 ;	buf -> Y+0
                 ; 0000 007A     buf[3]=0;
                 ; 0000 007B     LCD_Puts(buf,50,10,GREEN,WHITE,3,3);
0005ae d3cb      	RCALL SUBOPT_0x24
0005af eee0      	LDI  R30,LOW(2016)
0005b0 e0f7      	LDI  R31,HIGH(2016)
0005b1 c049      	RJMP _0x20A0004
                 ; 0000 007C }
                 ; .FEND
                 ;
                 ;void set_sold_temp(int temp)
                 ; 0000 007F {
                 _set_sold_temp:
                 ; .FSTART _set_sold_temp
                 ; 0000 0080     char buf[1];
                 ; 0000 0081     sprintf( buf,"%i  ",temp );
0005b2 d346      	RCALL SUBOPT_0x7
0005b3 9721      	SBIW R28,1
                 ;	temp -> Y+1
                 ;	buf -> Y+0
0005b4 d3ca      	RCALL SUBOPT_0x25
0005b5 d3cd      	RCALL SUBOPT_0x26
0005b6 d3d1      	RCALL SUBOPT_0x27
0005b7 d3d5      	RCALL SUBOPT_0x28
                 ; 0000 0082     buf[3]=0;
                 ; 0000 0083     LCD_Puts(buf,122,10,RED,WHITE,3,3);
0005b8 d3da      	RCALL SUBOPT_0x29
0005b9 d3c0      	RCALL SUBOPT_0x24
0005ba d3dd      	RCALL SUBOPT_0x2A
0005bb d3df      	RCALL SUBOPT_0x2B
0005bc d3e1      	RCALL SUBOPT_0x2C
                 ; 0000 0084 }
0005bd 9623      	ADIW R28,3
0005be 9508      	RET
                 ; .FEND
                 ;void set_air_cur_temp(int temp)
                 ; 0000 0086 {
                 _set_air_cur_temp:
                 ; .FSTART _set_air_cur_temp
                 ; 0000 0087     char buf[5];
                 ; 0000 0088     sprintf( buf,"%i  ",temp );
0005bf d3a1      	RCALL SUBOPT_0x23
                 ;	temp -> Y+5
                 ;	buf -> Y+0
                 ; 0000 0089     buf[3]=0;
                 ; 0000 008A     LCD_Puts(buf,50,50,GREEN,WHITE,3,3);
0005c0 d3e3      	RCALL SUBOPT_0x2D
0005c1 eee0      	LDI  R30,LOW(2016)
0005c2 e0f7      	LDI  R31,HIGH(2016)
0005c3 c037      	RJMP _0x20A0004
                 ; 0000 008B }
                 ; .FEND
                 ;
                 ;void set_air_temp(int temp)
                 ; 0000 008E {
                 _set_air_temp:
                 ; .FSTART _set_air_temp
                 ; 0000 008F     char buf[5];
                 ; 0000 0090     sprintf( buf,"%i  ",temp);
0005c4 d334      	RCALL SUBOPT_0x7
0005c5 9725      	SBIW R28,5
                 ;	temp -> Y+5
                 ;	buf -> Y+0
0005c6 d3b8      	RCALL SUBOPT_0x25
0005c7 d3bb      	RCALL SUBOPT_0x26
0005c8 d3de      	RCALL SUBOPT_0x2E
0005c9 d3c3      	RCALL SUBOPT_0x28
                 ; 0000 0091     buf[3]=0;
                 ; 0000 0092     LCD_Puts(buf,122,50,RED,WHITE,3,3);
0005ca d3c8      	RCALL SUBOPT_0x29
0005cb d3d8      	RCALL SUBOPT_0x2D
0005cc d3cb      	RCALL SUBOPT_0x2A
0005cd c02d      	RJMP _0x20A0004
                 ; 0000 0093 }
                 ; .FEND
                 ;void set_fan(int fan)
                 ; 0000 0095 {
                 _set_fan:
                 ; .FSTART _set_fan
                 ; 0000 0096     char buf[5];
                 ; 0000 0097     if (fan>4)
0005ce d32a      	RCALL SUBOPT_0x7
0005cf 9725      	SBIW R28,5
                 ;	fan -> Y+5
                 ;	buf -> Y+0
0005d0 81ad      	LDD  R26,Y+5
0005d1 81be      	LDD  R27,Y+5+1
0005d2 9715      	SBIW R26,5
0005d3 f0b4      	BRLT _0x16F
                 ; 0000 0098     {
                 ; 0000 0099         fan_power= map(fan, 1, 100, 80, 255);
0005d4 d3b3      	RCALL SUBOPT_0x27
                +
0005d5 e0e1     +LDI R30 , LOW ( 0x1 )
0005d6 e0f0     +LDI R31 , HIGH ( 0x1 )
0005d7 e060     +LDI R22 , BYTE3 ( 0x1 )
0005d8 e070     +LDI R23 , BYTE4 ( 0x1 )
                 	__GETD1N 0x1
0005d9 d4f8      	RCALL __PUTPARD1
                +
0005da e6e4     +LDI R30 , LOW ( 0x64 )
0005db e0f0     +LDI R31 , HIGH ( 0x64 )
0005dc e060     +LDI R22 , BYTE3 ( 0x64 )
0005dd e070     +LDI R23 , BYTE4 ( 0x64 )
                 	__GETD1N 0x64
0005de d4f3      	RCALL __PUTPARD1
                +
0005df e5e0     +LDI R30 , LOW ( 0x50 )
0005e0 e0f0     +LDI R31 , HIGH ( 0x50 )
0005e1 e060     +LDI R22 , BYTE3 ( 0x50 )
0005e2 e070     +LDI R23 , BYTE4 ( 0x50 )
                 	__GETD1N 0x50
0005e3 d4ee      	RCALL __PUTPARD1
                +
0005e4 efaf     +LDI R26 , LOW ( 0xFF )
0005e5 e0b0     +LDI R27 , HIGH ( 0xFF )
0005e6 e080     +LDI R24 , BYTE3 ( 0xFF )
0005e7 e090     +LDI R25 , BYTE4 ( 0xFF )
                 	__GETD2N 0xFF
0005e8 df27      	RCALL _map
0005e9 c001      	RJMP _0x1B1
                 ; 0000 009A     }
                 ; 0000 009B     else
                 _0x16F:
                 ; 0000 009C     {
                 ; 0000 009D          fan_power=0;
0005ea e0e0      	LDI  R30,LOW(0)
                 _0x1B1:
0005eb bdea      	OUT  0x2A,R30
                 ; 0000 009E     }
                 ; 0000 009F 
                 ; 0000 00A0     sprintf( buf,"%i%%  ",fan );
0005ec d392      	RCALL SUBOPT_0x25
                +
0005ed eee9     +LDI R30 , LOW ( 2 * _0x0 + ( 5 ) )
0005ee e0f4     +LDI R31 , HIGH ( 2 * _0x0 + ( 5 ) )
                 	__POINTW1FN _0x0,5
0005ef d3ab      	RCALL SUBOPT_0x2B
0005f0 d3b6      	RCALL SUBOPT_0x2E
0005f1 e084      	LDI  R24,4
0005f2 d2ad      	RCALL _sprintf
0005f3 9628      	ADIW R28,8
                 ; 0000 00A1     buf[4]=0;
0005f4 e0e0      	LDI  R30,LOW(0)
0005f5 83ec      	STD  Y+4,R30
                 ; 0000 00A2     LCD_Puts(buf,50,90,BLACK,WHITE,3,3);
0005f6 d388      	RCALL SUBOPT_0x25
0005f7 d3ac      	RCALL SUBOPT_0x2D
0005f8 e5ea      	LDI  R30,LOW(90)
0005f9 e0f0      	LDI  R31,HIGH(90)
0005fa d3b0      	RCALL SUBOPT_0x2F
                 _0x20A0004:
0005fb 93fa      	ST   -Y,R31
0005fc 93ea      	ST   -Y,R30
0005fd d3a0      	RCALL SUBOPT_0x2C
                 ; 0000 00A3 
                 ; 0000 00A4 }
0005fe 9627      	ADIW R28,7
0005ff 9508      	RET
                 ; .FEND
                 ;void get_all_input(void)
                 ; 0000 00A6 {
                 _get_all_input:
                 ; .FSTART _get_all_input
                 ; 0000 00A7     solder_cur= map(read_adc(solder_TC), 0, 1023, 0, 480);
000600 e0a6      	LDI  R26,LOW(6)
000601 d3ad      	RCALL SUBOPT_0x30
000602 014f      	MOVW R8,R30
                 ; 0000 00A8     //solder_cur=read_adc(solder_TC)/10;
                 ; 0000 00A9     air_cur= map(read_adc(air_TC), 0, 1023, 0, 480);
000603 e0a7      	LDI  R26,LOW(7)
000604 d3aa      	RCALL SUBOPT_0x30
000605 015f      	MOVW R10,R30
                 ; 0000 00AA     solder_set= map(read_adc(solder_RR), 0, 1023, 0, 480);
000606 e0a0      	LDI  R26,LOW(0)
000607 d3a7      	RCALL SUBOPT_0x30
000608 016f      	MOVW R12,R30
                 ; 0000 00AB     air_set= map(read_adc(air_RR), 0, 1023, 0, 480);
000609 e0a2      	LDI  R26,LOW(2)
00060a d3a4      	RCALL SUBOPT_0x30
00060b 93e0 01b7 	STS  _air_set,R30
00060d 93f0 01b8 	STS  _air_set+1,R31
                 ; 0000 00AC     fan_set= map(read_adc(fan_RR), 0, 1023, 0, 100);
00060f e0a1      	LDI  R26,LOW(1)
000610 d076      	RCALL _read_adc
000611 2766      	CLR  R22
000612 2777      	CLR  R23
000613 d3b3      	RCALL SUBOPT_0x31
                +
000614 efef     +LDI R30 , LOW ( 0x3FF )
000615 e0f3     +LDI R31 , HIGH ( 0x3FF )
000616 e060     +LDI R22 , BYTE3 ( 0x3FF )
000617 e070     +LDI R23 , BYTE4 ( 0x3FF )
                 	__GETD1N 0x3FF
000618 d3ae      	RCALL SUBOPT_0x31
                +
000619 e6a4     +LDI R26 , LOW ( 0x64 )
00061a e0b0     +LDI R27 , HIGH ( 0x64 )
00061b e080     +LDI R24 , BYTE3 ( 0x64 )
00061c e090     +LDI R25 , BYTE4 ( 0x64 )
                 	__GETD2N 0x64
00061d def2      	RCALL _map
00061e 93e0 01b9 	STS  _fan_set,R30
000620 93f0 01ba 	STS  _fan_set+1,R31
                 ; 0000 00AD 
                 ; 0000 00AE }
000622 9508      	RET
                 ; .FEND
                 ;
                 ;// Timer 0 overflow interrupt service routine
                 ;interrupt [TIM0_OVF] void timer0_ovf_isr(void)
                 ; 0000 00B2 {
                 _timer0_ovf_isr:
                 ; .FSTART _timer0_ovf_isr
000623 920a      	ST   -Y,R0
000624 921a      	ST   -Y,R1
000625 92fa      	ST   -Y,R15
000626 936a      	ST   -Y,R22
000627 937a      	ST   -Y,R23
000628 938a      	ST   -Y,R24
000629 939a      	ST   -Y,R25
00062a 93aa      	ST   -Y,R26
00062b 93ba      	ST   -Y,R27
00062c 93ea      	ST   -Y,R30
00062d 93fa      	ST   -Y,R31
00062e b7ef      	IN   R30,SREG
00062f 93ea      	ST   -Y,R30
                 ; 0000 00B3 // Place your code here
                 ; 0000 00B4     sys_tmr++;
000630 9463      	INC  R6
                 ; 0000 00B5     if (sys_tmr==6)
000631 e0e6      	LDI  R30,LOW(6)
000632 15e6      	CP   R30,R6
000633 f419      	BRNE _0x171
                 ; 0000 00B6     {
                 ; 0000 00B7         sys_tmr=0;
000634 2466      	CLR  R6
                 ; 0000 00B8         process_butt();
000635 d00f      	RCALL _process_butt
                 ; 0000 00B9          process_sys();
000636 d023      	RCALL _process_sys
                 ; 0000 00BA     }
                 ; 0000 00BB 
                 ; 0000 00BC }
                 _0x171:
000637 91e9      	LD   R30,Y+
000638 bfef      	OUT  SREG,R30
000639 91f9      	LD   R31,Y+
00063a 91e9      	LD   R30,Y+
00063b 91b9      	LD   R27,Y+
00063c 91a9      	LD   R26,Y+
00063d 9199      	LD   R25,Y+
00063e 9189      	LD   R24,Y+
00063f 9179      	LD   R23,Y+
000640 9169      	LD   R22,Y+
000641 90f9      	LD   R15,Y+
000642 9019      	LD   R1,Y+
000643 9009      	LD   R0,Y+
000644 9518      	RETI
                 ; .FEND
                 ;
                 ;void process_butt(void)
                 ; 0000 00BF {
                 _process_butt:
                 ; .FSTART _process_butt
                 ; 0000 00C0 
                 ; 0000 00C1     if (old_but_sold==1 && solder_but==0)
000645 fe22      	SBRS R2,2
000646 c002      	RJMP _0x173
000647 9b9b      	SBIS 0x13,3
000648 c001      	RJMP _0x174
                 _0x173:
000649 c007      	RJMP _0x172
                 _0x174:
                 ; 0000 00C2     {
                 ; 0000 00C3         solder_on=!solder_on;
00064a e0e1      	LDI  R30,LOW(1)
00064b 262e      	EOR  R2,R30
                 ; 0000 00C4         solde_led=solder_on;
00064c fc20      	SBRC R2,0
00064d c002      	RJMP _0x175
00064e 98ac      	CBI  0x15,4
00064f c001      	RJMP _0x176
                 _0x175:
000650 9aac      	SBI  0x15,4
                 _0x176:
                 ; 0000 00C5     }
                 ; 0000 00C6     air_on=air_ger;
                 _0x172:
000651 94e8      	CLT
000652 999d      	SBIC 0x13,5
000653 9468      	SET
000654 f821      	BLD  R2,1
                 ; 0000 00C7     old_but_sold=solder_but;
000655 94e8      	CLT
000656 999b      	SBIC 0x13,3
000657 9468      	SET
000658 f822      	BLD  R2,2
                 ; 0000 00C8 }
000659 9508      	RET
                 ; .FEND
                 ;void process_sys(void)
                 ; 0000 00CA {
                 _process_sys:
                 ; .FSTART _process_sys
                 ; 0000 00CB     if (solder_on==1)
00065a fe20      	SBRS R2,0
00065b c01a      	RJMP _0x177
                 ; 0000 00CC     {
                 ; 0000 00CD         if (solder_set-solder_cur>5) sold_power=60;
00065c d371      	RCALL SUBOPT_0x32
00065d 9716      	SBIW R26,6
00065e f014      	BRLT _0x178
00065f e3ec      	LDI  R30,LOW(60)
000660 bde8      	OUT  0x28,R30
                 ; 0000 00CE         if (solder_set-solder_cur>10) sold_power=100;
                 _0x178:
000661 d36c      	RCALL SUBOPT_0x32
000662 971b      	SBIW R26,11
000663 f014      	BRLT _0x179
000664 e6e4      	LDI  R30,LOW(100)
000665 bde8      	OUT  0x28,R30
                 ; 0000 00CF         if (solder_set-solder_cur>20) sold_power=160;
                 _0x179:
000666 d367      	RCALL SUBOPT_0x32
000667 9755      	SBIW R26,21
000668 f014      	BRLT _0x17A
000669 eae0      	LDI  R30,LOW(160)
00066a bde8      	OUT  0x28,R30
                 ; 0000 00D0         if (solder_set-solder_cur>40) sold_power=200;
                 _0x17A:
00066b d362      	RCALL SUBOPT_0x32
00066c 9799      	SBIW R26,41
00066d f014      	BRLT _0x17B
00066e ece8      	LDI  R30,LOW(200)
00066f bde8      	OUT  0x28,R30
                 ; 0000 00D1         if (solder_set<solder_cur) sold_power=0;
                 _0x17B:
                +
000670 14c8     +CP R12 , R8
000671 04d9     +CPC R13 , R9
                 	__CPWRR 12,13,8,9
000672 f414      	BRGE _0x17C
000673 e0e0      	LDI  R30,LOW(0)
000674 bde8      	OUT  0x28,R30
                 ; 0000 00D2     }
                 _0x17C:
                 ; 0000 00D3     else
000675 c002      	RJMP _0x17D
                 _0x177:
                 ; 0000 00D4     {
                 ; 0000 00D5        sold_power=0;
000676 e0e0      	LDI  R30,LOW(0)
000677 bde8      	OUT  0x28,R30
                 ; 0000 00D6     }
                 _0x17D:
                 ; 0000 00D7 
                 ; 0000 00D8     if (air_on==1)
000678 fe21      	SBRS R2,1
000679 c00c      	RJMP _0x17E
                 ; 0000 00D9     {
                 ; 0000 00DA         set_fan(fan_set);
00067a 91a0 01b9 	LDS  R26,_fan_set
00067c 91b0 01ba 	LDS  R27,_fan_set+1
00067e df4f      	RCALL _set_fan
                 ; 0000 00DB         if (air_set>air_cur)
00067f d352      	RCALL SUBOPT_0x33
000680 16aa      	CP   R10,R26
000681 06bb      	CPC  R11,R27
000682 f414      	BRGE _0x17F
                 ; 0000 00DC         {
                 ; 0000 00DD             air_heater=1;
000683 9ac0      	SBI  0x18,0
                 ; 0000 00DE         }
                 ; 0000 00DF         else
000684 c001      	RJMP _0x182
                 _0x17F:
                 ; 0000 00E0         {
                 ; 0000 00E1             air_heater=0;
000685 98c0      	CBI  0x18,0
                 ; 0000 00E2         }
                 _0x182:
                 ; 0000 00E3     }
                 ; 0000 00E4 
                 ; 0000 00E5 
                 ; 0000 00E6 
                 ; 0000 00E7 
                 ; 0000 00E8 }
                 _0x17E:
000686 9508      	RET
                 ; .FEND
                 ;// Voltage Reference: AREF pin
                 ;#define ADC_VREF_TYPE ((0<<REFS1) | (0<<REFS0) | (0<<ADLAR))
                 ;
                 ;// Read the AD conversion result
                 ;unsigned int read_adc(unsigned char adc_input)
                 ; 0000 00EE {
                 _read_adc:
                 ; .FSTART _read_adc
                 ; 0000 00EF     ADMUX=adc_input | ADC_VREF_TYPE;
000687 93aa      	ST   -Y,R26
                 ;	adc_input -> Y+0
000688 81e8      	LD   R30,Y
000689 b9e7      	OUT  0x7,R30
                 ; 0000 00F0     // Delay needed for the stabilization of the ADC input voltage
                 ; 0000 00F1     delay_us(10);
                +
00068a e18b     +LDI R24 , LOW ( 27 )
                +__DELAY_USB_LOOP :
00068b 958a     +DEC R24
00068c f7f1     +BRNE __DELAY_USB_LOOP
                 	__DELAY_USB 27
                 ; 0000 00F2     // Start the AD conversion
                 ; 0000 00F3     ADCSRA|=(1<<ADSC);
00068d 9a36      	SBI  0x6,6
                 ; 0000 00F4     // Wait for the AD conversion to complete
                 ; 0000 00F5     while ((ADCSRA & (1<<ADIF))==0);
                 _0x185:
00068e 9b34      	SBIS 0x6,4
00068f cffe      	RJMP _0x185
                 ; 0000 00F6     ADCSRA|=(1<<ADIF);
000690 9a34      	SBI  0x6,4
                 ; 0000 00F7     return ADCW;
000691 b1e4      	IN   R30,0x4
000692 b1f5      	IN   R31,0x4+1
                 _0x20A0003:
000693 9621      	ADIW R28,1
000694 9508      	RET
                 ; 0000 00F8 }
                 ; .FEND
                 ;
                 ;
                 ;void main(void)
                 ; 0000 00FC {
                 _main:
                 ; .FSTART _main
                 ; 0000 00FD // Declare your local variables here
                 ; 0000 00FE 
                 ; 0000 00FF // Input/Output Ports initialization
                 ; 0000 0100 // Port B initialization
                 ; 0000 0101 // Function: Bit7=In Bit6=In Bit5=In Bit4=In Bit3=In Bit2=Out Bit1=Out Bit0=Out
                 ; 0000 0102 DDRB=(0<<DDB7) | (0<<DDB6) | (0<<DDB5) | (0<<DDB4) | (0<<DDB3) | (1<<DDB2) | (1<<DDB1) | (1<<DDB0);
000695 e0e7      	LDI  R30,LOW(7)
000696 bbe7      	OUT  0x17,R30
                 ; 0000 0103 // State: Bit7=T Bit6=T Bit5=T Bit4=T Bit3=T Bit2=0 Bit1=0 Bit0=0
                 ; 0000 0104 PORTB=(0<<PORTB7) | (0<<PORTB6) | (0<<PORTB5) | (0<<PORTB4) | (0<<PORTB3) | (0<<PORTB2) | (0<<PORTB1) | (0<<PORTB0);
000697 e0e0      	LDI  R30,LOW(0)
000698 bbe8      	OUT  0x18,R30
                 ; 0000 0105 
                 ; 0000 0106 // Port C initialization
                 ; 0000 0107 // Function: Bit6=In Bit5=In Bit4=In Bit3=In Bit2=In Bit1=In Bit0=In
                 ; 0000 0108 DDRC=(0<<DDC6) | (0<<DDC5) | (1<<DDC4) | (0<<DDC3) | (0<<DDC2) | (0<<DDC1) | (0<<DDC0);
000699 e1e0      	LDI  R30,LOW(16)
00069a bbe4      	OUT  0x14,R30
                 ; 0000 0109 // State: Bit6=T Bit5=T Bit4=T Bit3=T Bit2=T Bit1=T Bit0=T
                 ; 0000 010A PORTC=(0<<PORTC6) | (0<<PORTC5) | (0<<PORTC4) | (0<<PORTC3) | (0<<PORTC2) | (0<<PORTC1) | (0<<PORTC0);
00069b e0e0      	LDI  R30,LOW(0)
00069c bbe5      	OUT  0x15,R30
                 ; 0000 010B 
                 ; 0000 010C // Port D initialization
                 ; 0000 010D // Function: Bit7=Out Bit6=Out Bit5=Out Bit4=Out Bit3=Out Bit2=In Bit1=In Bit0=In
                 ; 0000 010E DDRD=(1<<DDD7) | (1<<DDD6) | (1<<DDD5) | (1<<DDD4) | (1<<DDD3) | (0<<DDD2) | (0<<DDD1) | (0<<DDD0);
00069d efe8      	LDI  R30,LOW(248)
00069e bbe1      	OUT  0x11,R30
                 ; 0000 010F // State: Bit7=T Bit6=T Bit5=T Bit4=T Bit3=T Bit2=T Bit1=T Bit0=T
                 ; 0000 0110 PORTD=(0<<PORTD7) | (0<<PORTD6) | (0<<PORTD5) | (0<<PORTD4) | (0<<PORTD3) | (0<<PORTD2) | (0<<PORTD1) | (0<<PORTD0);
00069f e0e0      	LDI  R30,LOW(0)
0006a0 bbe2      	OUT  0x12,R30
                 ; 0000 0111 
                 ; 0000 0112 // Timer/Counter 0 initialization
                 ; 0000 0113 // Clock source: System Clock
                 ; 0000 0114 // Clock value: 7,813 kHz
                 ; 0000 0115 TCCR0=(1<<CS02) | (0<<CS01) | (1<<CS00);
0006a1 e0e5      	LDI  R30,LOW(5)
0006a2 bfe3      	OUT  0x33,R30
                 ; 0000 0116 TCNT0=0x00;
0006a3 e0e0      	LDI  R30,LOW(0)
0006a4 bfe2      	OUT  0x32,R30
                 ; 0000 0117 
                 ; 0000 0118 // Timer/Counter 1 initialization
                 ; 0000 0119 // Clock source: System Clock
                 ; 0000 011A // Clock value: 7,813 kHz
                 ; 0000 011B // Mode: Ph. correct PWM top=0x00FF
                 ; 0000 011C // OC1A output: Inverted PWM
                 ; 0000 011D // OC1B output: Inverted PWM
                 ; 0000 011E // Noise Canceler: Off
                 ; 0000 011F // Input Capture on Falling Edge
                 ; 0000 0120 // Timer Period: 65,28 ms
                 ; 0000 0121 // Output Pulse(s):
                 ; 0000 0122 // OC1A Period: 65,28 ms Width: 65,28 ms
                 ; 0000 0123 // OC1B Period: 65,28 ms Width: 65,28 ms
                 ; 0000 0124 // Timer1 Overflow Interrupt: Off
                 ; 0000 0125 // Input Capture Interrupt: Off
                 ; 0000 0126 // Compare A Match Interrupt: Off
                 ; 0000 0127 // Compare B Match Interrupt: Off
                 ; 0000 0128 TCCR1A=(1<<COM1A1) | (1<<COM1A0) | (1<<COM1B1) | (1<<COM1B0) | (0<<WGM11) | (1<<WGM10);
0006a5 efe1      	LDI  R30,LOW(241)
0006a6 bdef      	OUT  0x2F,R30
                 ; 0000 0129 TCCR1B=(0<<ICNC1) | (0<<ICES1) | (0<<WGM13) | (0<<WGM12) | (1<<CS12) | (0<<CS11) | (1<<CS10);
0006a7 e0e5      	LDI  R30,LOW(5)
0006a8 bdee      	OUT  0x2E,R30
                 ; 0000 012A TCNT1H=0x00;
0006a9 e0e0      	LDI  R30,LOW(0)
0006aa bded      	OUT  0x2D,R30
                 ; 0000 012B TCNT1L=0x00;
0006ab bdec      	OUT  0x2C,R30
                 ; 0000 012C ICR1H=0x00;
0006ac bde7      	OUT  0x27,R30
                 ; 0000 012D ICR1L=0x00;
0006ad bde6      	OUT  0x26,R30
                 ; 0000 012E OCR1AH=0x00;
0006ae bdeb      	OUT  0x2B,R30
                 ; 0000 012F OCR1AL=0x00;
0006af bdea      	OUT  0x2A,R30
                 ; 0000 0130 OCR1BH=0x00;
0006b0 bde9      	OUT  0x29,R30
                 ; 0000 0131 OCR1BL=0x00;
0006b1 bde8      	OUT  0x28,R30
                 ; 0000 0132 
                 ; 0000 0133 // Timer/Counter 2 initialization
                 ; 0000 0134 // Clock source: System Clock
                 ; 0000 0135 // Clock value: Timer2 Stopped
                 ; 0000 0136 // Mode: Normal top=0xFF
                 ; 0000 0137 // OC2 output: Disconnected
                 ; 0000 0138 ASSR=0<<AS2;
0006b2 bde2      	OUT  0x22,R30
                 ; 0000 0139 TCCR2=(0<<PWM2) | (0<<COM21) | (0<<COM20) | (0<<CTC2) | (0<<CS22) | (0<<CS21) | (0<<CS20);
0006b3 bde5      	OUT  0x25,R30
                 ; 0000 013A TCNT2=0x00;
0006b4 bde4      	OUT  0x24,R30
                 ; 0000 013B OCR2=0x00;
0006b5 bde3      	OUT  0x23,R30
                 ; 0000 013C 
                 ; 0000 013D // Timer(s)/Counter(s) Interrupt(s) initialization
                 ; 0000 013E TIMSK=(0<<OCIE2) | (0<<TOIE2) | (0<<TICIE1) | (0<<OCIE1A) | (0<<OCIE1B) | (0<<TOIE1) | (1<<TOIE0);
0006b6 e0e1      	LDI  R30,LOW(1)
0006b7 bfe9      	OUT  0x39,R30
                 ; 0000 013F 
                 ; 0000 0140 // External Interrupt(s) initialization
                 ; 0000 0141 // INT0: Off
                 ; 0000 0142 // INT1: Off
                 ; 0000 0143 MCUCR=(0<<ISC11) | (0<<ISC10) | (0<<ISC01) | (0<<ISC00);
0006b8 e0e0      	LDI  R30,LOW(0)
0006b9 bfe5      	OUT  0x35,R30
                 ; 0000 0144 
                 ; 0000 0145 // USART initialization
                 ; 0000 0146 // Communication Parameters: 8 Data, 1 Stop, No Parity
                 ; 0000 0147 // USART Receiver: Off
                 ; 0000 0148 // USART Transmitter: On
                 ; 0000 0149 // USART Mode: Asynchronous
                 ; 0000 014A // USART Baud Rate: 4800
                 ; 0000 014B UCSRA=(0<<RXC) | (0<<TXC) | (0<<UDRE) | (0<<FE) | (0<<DOR) | (0<<UPE) | (0<<U2X) | (0<<MPCM);
0006ba b9eb      	OUT  0xB,R30
                 ; 0000 014C UCSRB=(0<<RXCIE) | (0<<TXCIE) | (0<<UDRIE) | (0<<RXEN) | (1<<TXEN) | (0<<UCSZ2) | (0<<RXB8) | (0<<TXB8);
0006bb e0e8      	LDI  R30,LOW(8)
0006bc b9ea      	OUT  0xA,R30
                 ; 0000 014D UCSRC=(1<<URSEL) | (0<<UMSEL) | (0<<UPM1) | (0<<UPM0) | (0<<USBS) | (1<<UCSZ1) | (1<<UCSZ0) | (0<<UCPOL);
0006bd e8e6      	LDI  R30,LOW(134)
0006be bde0      	OUT  0x20,R30
                 ; 0000 014E UBRRH=0x00;
0006bf e0e0      	LDI  R30,LOW(0)
0006c0 bde0      	OUT  0x20,R30
                 ; 0000 014F UBRRL=0x0C;
0006c1 e0ec      	LDI  R30,LOW(12)
0006c2 b9e9      	OUT  0x9,R30
                 ; 0000 0150 
                 ; 0000 0151 // Analog Comparator initialization
                 ; 0000 0152 // Analog Comparator: Off
                 ; 0000 0153 // The Analog Comparator's positive input is
                 ; 0000 0154 // connected to the AIN0 pin
                 ; 0000 0155 // The Analog Comparator's negative input is
                 ; 0000 0156 // connected to the AIN1 pin
                 ; 0000 0157 ACSR=(1<<ACD) | (0<<ACBG) | (0<<ACO) | (0<<ACI) | (0<<ACIE) | (0<<ACIC) | (0<<ACIS1) | (0<<ACIS0);
0006c3 e8e0      	LDI  R30,LOW(128)
0006c4 b9e8      	OUT  0x8,R30
                 ; 0000 0158 
                 ; 0000 0159 // ADC initialization
                 ; 0000 015A // ADC Clock frequency: 7,813 kHz
                 ; 0000 015B // ADC Voltage Reference: AREF pin
                 ; 0000 015C ADMUX=ADC_VREF_TYPE;
0006c5 e0e0      	LDI  R30,LOW(0)
0006c6 b9e7      	OUT  0x7,R30
                 ; 0000 015D ADCSRA=(1<<ADEN) | (0<<ADSC) | (0<<ADFR) | (0<<ADIF) | (0<<ADIE) | (1<<ADPS2) | (1<<ADPS1) | (1<<ADPS0);
0006c7 e8e7      	LDI  R30,LOW(135)
0006c8 b9e6      	OUT  0x6,R30
                 ; 0000 015E SFIOR=(0<<ACME);
0006c9 e0e0      	LDI  R30,LOW(0)
0006ca bfe0      	OUT  0x30,R30
                 ; 0000 015F 
                 ; 0000 0160 // SPI initialization
                 ; 0000 0161 // SPI disabled
                 ; 0000 0162 SPCR=(0<<SPIE) | (0<<SPE) | (0<<DORD) | (0<<MSTR) | (0<<CPOL) | (0<<CPHA) | (0<<SPR1) | (0<<SPR0);
0006cb b9ed      	OUT  0xD,R30
                 ; 0000 0163 
                 ; 0000 0164 // TWI initialization
                 ; 0000 0165 // TWI disabled
                 ; 0000 0166 TWCR=(0<<TWEA) | (0<<TWSTA) | (0<<TWSTO) | (0<<TWEN) | (0<<TWIE);
0006cc bfe6      	OUT  0x36,R30
                 ; 0000 0167 
                 ; 0000 0168 // Global enable interrupts
                 ; 0000 0169 fan_power=0;
0006cd bdea      	OUT  0x2A,R30
                 ; 0000 016A 
                 ; 0000 016B LCD_init();
0006ce dc64      	RCALL _LCD_init
                 ; 0000 016C SetRotation(90);
0006cf e5aa      	LDI  R26,LOW(90)
0006d0 e0b0      	LDI  R27,0
0006d1 dc7b      	RCALL _SetRotation
                 ; 0000 016D LCD_Puts(" LNSOLDER ",0,50,WHITE,BLACK,3,3);
                +
0006d2 e6e0     +LDI R30 , LOW ( _0x188 + ( 0 ) )
0006d3 e0f1     +LDI R31 , HIGH ( _0x188 + ( 0 ) )
                 	__POINTW1MN _0x188,0
0006d4 d2d6      	RCALL SUBOPT_0x2F
0006d5 d2c5      	RCALL SUBOPT_0x2B
0006d6 d2cd      	RCALL SUBOPT_0x2D
0006d7 d255      	RCALL SUBOPT_0x15
0006d8 d2d2      	RCALL SUBOPT_0x2F
0006d9 d2c1      	RCALL SUBOPT_0x2B
0006da e0e3      	LDI  R30,LOW(3)
0006db 93ea      	ST   -Y,R30
0006dc e0a3      	LDI  R26,LOW(3)
0006dd dd4b      	RCALL _LCD_Puts
                 ; 0000 016E delay_ms(1000);
0006de eea8      	LDI  R26,LOW(1000)
0006df e0b3      	LDI  R27,HIGH(1000)
0006e0 d34c      	RCALL _delay_ms
                 ; 0000 016F LCD_FillScreen(WHITE);
0006e1 efaf      	LDI  R26,LOW(65535)
0006e2 efbf      	LDI  R27,HIGH(65535)
0006e3 dd69      	RCALL _LCD_FillScreen
                 ; 0000 0170 
                 ; 0000 0171 draw_2bit_image (0,5,32,32,BLUE,WHITE,solder_img);
0006e4 d217      	RCALL SUBOPT_0x8
0006e5 e0e5      	LDI  R30,LOW(5)
0006e6 d2f0      	RCALL SUBOPT_0x34
0006e7 d2ef      	RCALL SUBOPT_0x34
0006e8 d2f1      	RCALL SUBOPT_0x35
0006e9 e2a6      	LDI  R26,LOW(_solder_img*2)
0006ea e0b0      	LDI  R27,HIGH(_solder_img*2)
0006eb de53      	RCALL _draw_2bit_image
                 ; 0000 0172 LCD_DrawLine(0,40,175,40,BLACK);
0006ec d20f      	RCALL SUBOPT_0x8
0006ed e2e8      	LDI  R30,LOW(40)
0006ee d2f1      	RCALL SUBOPT_0x36
0006ef e2e8      	LDI  R30,LOW(40)
0006f0 d2f3      	RCALL SUBOPT_0x37
                 ; 0000 0173 draw_2bit_image (0,45,32,32,BLUE,WHITE,hotair_img);
0006f1 d20a      	RCALL SUBOPT_0x8
0006f2 e2ed      	LDI  R30,LOW(45)
0006f3 d2e3      	RCALL SUBOPT_0x34
0006f4 d2e2      	RCALL SUBOPT_0x34
0006f5 d2e4      	RCALL SUBOPT_0x35
0006f6 e2a6      	LDI  R26,LOW(_hotair_img*2)
0006f7 e0b1      	LDI  R27,HIGH(_hotair_img*2)
0006f8 de46      	RCALL _draw_2bit_image
                 ; 0000 0174 LCD_DrawLine(0,80,175,80,BLACK);
0006f9 d202      	RCALL SUBOPT_0x8
0006fa e5e0      	LDI  R30,LOW(80)
0006fb d2e4      	RCALL SUBOPT_0x36
0006fc e5e0      	LDI  R30,LOW(80)
0006fd d2e6      	RCALL SUBOPT_0x37
                 ; 0000 0175 draw_2bit_image (2,85,32,32,BLUE,WHITE,fan_img);
0006fe e0e2      	LDI  R30,LOW(2)
0006ff 93ea      	ST   -Y,R30
000700 e5e5      	LDI  R30,LOW(85)
000701 d2d5      	RCALL SUBOPT_0x34
000702 d2d4      	RCALL SUBOPT_0x34
000703 d2d6      	RCALL SUBOPT_0x35
000704 eaa6      	LDI  R26,LOW(_fan_img*2)
000705 e0b0      	LDI  R27,HIGH(_fan_img*2)
000706 de38      	RCALL _draw_2bit_image
                 ; 0000 0176 LCD_DrawLine(0,120,175,120,BLACK);
000707 d1f4      	RCALL SUBOPT_0x8
000708 e7e8      	LDI  R30,LOW(120)
000709 d2d6      	RCALL SUBOPT_0x36
00070a e7e8      	LDI  R30,LOW(120)
00070b d2d8      	RCALL SUBOPT_0x37
                 ; 0000 0177 LCD_Puts("Powered by LnKOx & RadioVetal",0,123,SKY,WHITE,1,1);
                +
00070c e6eb     +LDI R30 , LOW ( _0x188 + ( 11 ) )
00070d e0f1     +LDI R31 , HIGH ( _0x188 + ( 11 ) )
                 	__POINTW1MN _0x188,11
00070e d29c      	RCALL SUBOPT_0x2F
00070f d28b      	RCALL SUBOPT_0x2B
000710 e7eb      	LDI  R30,LOW(123)
000711 e0f0      	LDI  R31,HIGH(123)
000712 d288      	RCALL SUBOPT_0x2B
000713 e1ec      	LDI  R30,LOW(23836)
000714 e5fd      	LDI  R31,HIGH(23836)
000715 d2d2      	RCALL SUBOPT_0x38
000716 d2d5      	RCALL SUBOPT_0x39
                 ; 0000 0178 
                 ; 0000 0179 #asm("sei")
000717 9478      	sei
                 ; 0000 017A while (1)
                 _0x189:
                 ; 0000 017B 
                 ; 0000 017C {
                 ; 0000 017D       // Place your code here
                 ; 0000 017E     get_all_input();
000718 dee7      	RCALL _get_all_input
                 ; 0000 017F     if (solder_on==1)
000719 fe20      	SBRS R2,0
00071a c011      	RJMP _0x18C
                 ; 0000 0180     {
                 ; 0000 0181         set_sold_cur_temp(solder_set);
00071b 01d6      	MOVW R26,R12
00071c de90      	RCALL _set_sold_cur_temp
                 ; 0000 0182         set_sold_temp(solder_cur);
00071d 01d4      	MOVW R26,R8
00071e de93      	RCALL _set_sold_temp
                 ; 0000 0183         if (solder_set>solder_cur)
                +
00071f 148c     +CP R8 , R12
000720 049d     +CPC R9 , R13
                 	__CPWRR 8,9,12,13
000721 f41c      	BRGE _0x18D
                 ; 0000 0184         {
                 ; 0000 0185            LCD_Puts("HEAT",15,30,RED,WHITE,1,1);
                +
000722 e8e9     +LDI R30 , LOW ( _0x188 + ( 41 ) )
000723 e0f1     +LDI R31 , HIGH ( _0x188 + ( 41 ) )
                 	__POINTW1MN _0x188,41
000724 c002      	RJMP _0x1B2
                 ; 0000 0186         }
                 ; 0000 0187         else
                 _0x18D:
                 ; 0000 0188         {
                 ; 0000 0189             LCD_Puts("    ",15,30,RED,WHITE,1,1);
                +
000725 e8ee     +LDI R30 , LOW ( _0x188 + ( 46 ) )
000726 e0f1     +LDI R31 , HIGH ( _0x188 + ( 46 ) )
                 	__POINTW1MN _0x188,46
                 _0x1B2:
000727 93fa      	ST   -Y,R31
000728 93ea      	ST   -Y,R30
000729 d2c4      	RCALL SUBOPT_0x3A
00072a d2c1      	RCALL SUBOPT_0x39
                 ; 0000 018A         }
                 ; 0000 018B     }
                 ; 0000 018C     else
00072b c00b      	RJMP _0x18F
                 _0x18C:
                 ; 0000 018D     {
                 ; 0000 018E        LCD_Puts("OFF    ",50,10,BLACK,WHITE,3,3);
                +
00072c e9e3     +LDI R30 , LOW ( _0x188 + ( 51 ) )
00072d e0f1     +LDI R31 , HIGH ( _0x188 + ( 51 ) )
                 	__POINTW1MN _0x188,51
00072e d26c      	RCALL SUBOPT_0x2B
00072f d274      	RCALL SUBOPT_0x2D
000730 d249      	RCALL SUBOPT_0x24
000731 d2c4      	RCALL SUBOPT_0x3B
                 ; 0000 018F        LCD_Puts("    ",15,30,RED,WHITE,1,1);
                +
000732 e9eb     +LDI R30 , LOW ( _0x188 + ( 59 ) )
000733 e0f1     +LDI R31 , HIGH ( _0x188 + ( 59 ) )
                 	__POINTW1MN _0x188,59
000734 d266      	RCALL SUBOPT_0x2B
000735 d2b8      	RCALL SUBOPT_0x3A
000736 d2b5      	RCALL SUBOPT_0x39
                 ; 0000 0190     }
                 _0x18F:
                 ; 0000 0191     if (air_on==1)
000737 fe21      	SBRS R2,1
000738 c012      	RJMP _0x190
                 ; 0000 0192     {
                 ; 0000 0193         set_air_cur_temp(air_set);
000739 d298      	RCALL SUBOPT_0x33
00073a de84      	RCALL _set_air_cur_temp
                 ; 0000 0194         set_air_temp(air_cur);
00073b 01d5      	MOVW R26,R10
00073c de87      	RCALL _set_air_temp
                 ; 0000 0195         if (air_set>air_cur)
00073d d294      	RCALL SUBOPT_0x33
00073e 16aa      	CP   R10,R26
00073f 06bb      	CPC  R11,R27
000740 f41c      	BRGE _0x191
                 ; 0000 0196         {
                 ; 0000 0197             LCD_Puts("HEAT",15,70,RED,WHITE,1,1);
                +
000741 eae0     +LDI R30 , LOW ( _0x188 + ( 64 ) )
000742 e0f1     +LDI R31 , HIGH ( _0x188 + ( 64 ) )
                 	__POINTW1MN _0x188,64
000743 c002      	RJMP _0x1B3
                 ; 0000 0198         }
                 ; 0000 0199         else
                 _0x191:
                 ; 0000 019A         {
                 ; 0000 019B             LCD_Puts("    ",15,70,RED,WHITE,1,1);
                +
000744 eae5     +LDI R30 , LOW ( _0x188 + ( 69 ) )
000745 e0f1     +LDI R31 , HIGH ( _0x188 + ( 69 ) )
                 	__POINTW1MN _0x188,69
                 _0x1B3:
000746 93fa      	ST   -Y,R31
000747 93ea      	ST   -Y,R30
000748 d2b1      	RCALL SUBOPT_0x3C
000749 d2a2      	RCALL SUBOPT_0x39
                 ; 0000 019C         }
                 ; 0000 019D     }
                 ; 0000 019E     else
00074a c015      	RJMP _0x193
                 _0x190:
                 ; 0000 019F     {
                 ; 0000 01A0         LCD_Puts("    ",15,70,RED,WHITE,1,1);
                +
00074b eaea     +LDI R30 , LOW ( _0x188 + ( 74 ) )
00074c e0f1     +LDI R31 , HIGH ( _0x188 + ( 74 ) )
                 	__POINTW1MN _0x188,74
00074d d24d      	RCALL SUBOPT_0x2B
00074e d2ab      	RCALL SUBOPT_0x3C
00074f d29c      	RCALL SUBOPT_0x39
                 ; 0000 01A1         if (air_cur>100)
000750 e6e4      	LDI  R30,LOW(100)
000751 e0f0      	LDI  R31,HIGH(100)
000752 15ea      	CP   R30,R10
000753 05fb      	CPC  R31,R11
000754 f414      	BRGE _0x194
                 ; 0000 01A2         {
                 ; 0000 01A3             set_fan(100);
000755 e6a4      	LDI  R26,LOW(100)
000756 c001      	RJMP _0x1B4
                 ; 0000 01A4         }
                 ; 0000 01A5         else
                 _0x194:
                 ; 0000 01A6         {
                 ; 0000 01A7             set_fan(0);
000757 e0a0      	LDI  R26,LOW(0)
                 _0x1B4:
000758 e0b0      	LDI  R27,0
000759 de74      	RCALL _set_fan
                 ; 0000 01A8         }
                 ; 0000 01A9 
                 ; 0000 01AA        LCD_Puts("OFF    ",50,50,BLACK,WHITE,3,3);
                +
00075a eaef     +LDI R30 , LOW ( _0x188 + ( 79 ) )
00075b e0f1     +LDI R31 , HIGH ( _0x188 + ( 79 ) )
                 	__POINTW1MN _0x188,79
00075c d23e      	RCALL SUBOPT_0x2B
00075d d246      	RCALL SUBOPT_0x2D
00075e d245      	RCALL SUBOPT_0x2D
00075f d296      	RCALL SUBOPT_0x3B
                 ; 0000 01AB     }
                 _0x193:
                 ; 0000 01AC 
                 ; 0000 01AD 
                 ; 0000 01AE 
                 ; 0000 01AF }
000760 cfb7      	RJMP _0x189
                 ; 0000 01B0 }
                 _0x196:
000761 cfff      	RJMP _0x196
                 ; .FEND
                 
                 	.DSEG
                 _0x188:
000160           	.BYTE 0x57
                 ;
                 ;//solder_but
                 ;// air_but
                 ;// air_ger
                 
                 	.CSEG
                 
                 	.DSEG
                 
                 	.CSEG
                 	#ifndef __SLEEP_DEFINED__
                 	#endif
                 
                 	.CSEG
                 _put_buff_G101:
                 ; .FSTART _put_buff_G101
000762 d196      	RCALL SUBOPT_0x7
000763 d37c      	RCALL __SAVELOCR2
000764 d29d      	RCALL SUBOPT_0x3D
000765 9612      	ADIW R26,2
000766 d35e      	RCALL __GETW1P
000767 9730      	SBIW R30,0
000768 f0f1      	BREQ _0x2020010
000769 d298      	RCALL SUBOPT_0x3D
00076a d29a      	RCALL SUBOPT_0x3E
00076b 018f      	MOVW R16,R30
00076c 9730      	SBIW R30,0
00076d f061      	BREQ _0x2020012
                +
00076e 3002     +CPI R16 , LOW ( 2 )
00076f e0e0     +LDI R30 , HIGH ( 2 )
000770 071e     +CPC R17 , R30
                 	__CPWRN 16,17,2
000771 f070      	BRLO _0x2020013
000772 01f8      	MOVW R30,R16
000773 9731      	SBIW R30,1
000774 018f      	MOVW R16,R30
                +
000775 81aa     +LDD R26 , Y + 2
000776 81bb     +LDD R27 , Y + 2 + 1
000777 9614     +ADIW R26 , 4
000778 93ed     +ST X + , R30
000779 93fc     +ST X , R31
                 	__PUTW1SNS 2,4
                 _0x2020012:
00077a d287      	RCALL SUBOPT_0x3D
00077b 9612      	ADIW R26,2
00077c d28b      	RCALL SUBOPT_0x3F
00077d 9731      	SBIW R30,1
00077e 81ac      	LDD  R26,Y+4
00077f 83a0      	STD  Z+0,R26
                 _0x2020013:
000780 d281      	RCALL SUBOPT_0x3D
000781 d343      	RCALL __GETW1P
000782 23ff      	TST  R31
000783 f012      	BRMI _0x2020014
000784 d27d      	RCALL SUBOPT_0x3D
000785 d282      	RCALL SUBOPT_0x3F
                 _0x2020014:
000786 c004      	RJMP _0x2020015
                 _0x2020010:
000787 d27a      	RCALL SUBOPT_0x3D
000788 d1a4      	RCALL SUBOPT_0x15
000789 93ed      	ST   X+,R30
00078a 93fc      	ST   X,R31
                 _0x2020015:
00078b d35b      	RCALL __LOADLOCR2
00078c 9625      	ADIW R28,5
00078d 9508      	RET
                 ; .FEND
                 __print_G101:
                 ; .FSTART __print_G101
00078e d16a      	RCALL SUBOPT_0x7
00078f 9726      	SBIW R28,6
000790 d34b      	RCALL __SAVELOCR6
000791 e010      	LDI  R17,0
000792 85ac      	LDD  R26,Y+12
000793 85bd      	LDD  R27,Y+12+1
000794 e0e0      	LDI  R30,LOW(0)
000795 e0f0      	LDI  R31,HIGH(0)
000796 93ed      	ST   X+,R30
000797 93fc      	ST   X,R31
                 _0x2020016:
000798 d197      	RCALL SUBOPT_0x16
000799 9631      	ADIW R30,1
00079a 8bea      	STD  Y+18,R30
00079b 8bfb      	STD  Y+18+1,R31
00079c 9731      	SBIW R30,1
00079d 91e4      	LPM  R30,Z
00079e 2f2e      	MOV  R18,R30
00079f 30e0      	CPI  R30,0
0007a0 f409      	BRNE PC+2
0007a1 c0f8      	RJMP _0x2020018
0007a2 2fe1      	MOV  R30,R17
0007a3 30e0      	CPI  R30,0
0007a4 f431      	BRNE _0x202001C
0007a5 3225      	CPI  R18,37
0007a6 f411      	BRNE _0x202001D
0007a7 e011      	LDI  R17,LOW(1)
0007a8 c001      	RJMP _0x202001E
                 _0x202001D:
0007a9 d264      	RCALL SUBOPT_0x40
                 _0x202001E:
0007aa c0ee      	RJMP _0x202001B
                 _0x202001C:
0007ab 30e1      	CPI  R30,LOW(0x1)
0007ac f4a1      	BRNE _0x202001F
0007ad 3225      	CPI  R18,37
0007ae f411      	BRNE _0x2020020
0007af d25e      	RCALL SUBOPT_0x40
0007b0 c0e7      	RJMP _0x20200CC
                 _0x2020020:
0007b1 e012      	LDI  R17,LOW(2)
0007b2 e040      	LDI  R20,LOW(0)
0007b3 e000      	LDI  R16,LOW(0)
0007b4 322d      	CPI  R18,45
0007b5 f411      	BRNE _0x2020021
0007b6 e001      	LDI  R16,LOW(1)
0007b7 c0e1      	RJMP _0x202001B
                 _0x2020021:
0007b8 322b      	CPI  R18,43
0007b9 f411      	BRNE _0x2020022
0007ba e24b      	LDI  R20,LOW(43)
0007bb c0dd      	RJMP _0x202001B
                 _0x2020022:
0007bc 3220      	CPI  R18,32
0007bd f411      	BRNE _0x2020023
0007be e240      	LDI  R20,LOW(32)
0007bf c0d9      	RJMP _0x202001B
                 _0x2020023:
0007c0 c002      	RJMP _0x2020024
                 _0x202001F:
0007c1 30e2      	CPI  R30,LOW(0x2)
0007c2 f439      	BRNE _0x2020025
                 _0x2020024:
0007c3 e050      	LDI  R21,LOW(0)
0007c4 e013      	LDI  R17,LOW(3)
0007c5 3320      	CPI  R18,48
0007c6 f411      	BRNE _0x2020026
0007c7 6800      	ORI  R16,LOW(128)
0007c8 c0d0      	RJMP _0x202001B
                 _0x2020026:
0007c9 c003      	RJMP _0x2020027
                 _0x2020025:
0007ca 30e3      	CPI  R30,LOW(0x3)
0007cb f009      	BREQ PC+2
0007cc c0cc      	RJMP _0x202001B
                 _0x2020027:
0007cd 3320      	CPI  R18,48
0007ce f010      	BRLO _0x202002A
0007cf 332a      	CPI  R18,58
0007d0 f008      	BRLO _0x202002B
                 _0x202002A:
0007d1 c007      	RJMP _0x2020029
                 _0x202002B:
0007d2 e0aa      	LDI  R26,LOW(10)
0007d3 9f5a      	MUL  R21,R26
0007d4 2d50      	MOV  R21,R0
0007d5 2fe2      	MOV  R30,R18
0007d6 53e0      	SUBI R30,LOW(48)
0007d7 0f5e      	ADD  R21,R30
0007d8 c0c0      	RJMP _0x202001B
                 _0x2020029:
0007d9 2fe2      	MOV  R30,R18
0007da 36e3      	CPI  R30,LOW(0x63)
0007db f431      	BRNE _0x202002F
0007dc d238      	RCALL SUBOPT_0x41
0007dd d165      	RCALL SUBOPT_0x1B
0007de 81a4      	LDD  R26,Z+4
0007df 93aa      	ST   -Y,R26
0007e0 d237      	RCALL SUBOPT_0x42
0007e1 c0b6      	RJMP _0x2020030
                 _0x202002F:
0007e2 37e3      	CPI  R30,LOW(0x73)
0007e3 f431      	BRNE _0x2020032
0007e4 d230      	RCALL SUBOPT_0x41
0007e5 d238      	RCALL SUBOPT_0x43
0007e6 d239      	RCALL SUBOPT_0x44
0007e7 d0e1      	RCALL _strlen
0007e8 2f1e      	MOV  R17,R30
0007e9 c008      	RJMP _0x2020033
                 _0x2020032:
0007ea 37e0      	CPI  R30,LOW(0x70)
0007eb f451      	BRNE _0x2020035
0007ec d228      	RCALL SUBOPT_0x41
0007ed d230      	RCALL SUBOPT_0x43
0007ee d231      	RCALL SUBOPT_0x44
0007ef d0e4      	RCALL _strlenf
0007f0 2f1e      	MOV  R17,R30
0007f1 6008      	ORI  R16,LOW(8)
                 _0x2020033:
0007f2 6002      	ORI  R16,LOW(2)
0007f3 770f      	ANDI R16,LOW(127)
0007f4 e030      	LDI  R19,LOW(0)
0007f5 c02e      	RJMP _0x2020036
                 _0x2020035:
0007f6 36e4      	CPI  R30,LOW(0x64)
0007f7 f011      	BREQ _0x2020039
0007f8 36e9      	CPI  R30,LOW(0x69)
0007f9 f411      	BRNE _0x202003A
                 _0x2020039:
0007fa 6004      	ORI  R16,LOW(4)
0007fb c002      	RJMP _0x202003B
                 _0x202003A:
0007fc 37e5      	CPI  R30,LOW(0x75)
0007fd f429      	BRNE _0x202003C
                 _0x202003B:
0007fe ece6      	LDI  R30,LOW(_tbl10_G101*2)
0007ff e0f4      	LDI  R31,HIGH(_tbl10_G101*2)
000800 d224      	RCALL SUBOPT_0x45
000801 e015      	LDI  R17,LOW(5)
000802 c00b      	RJMP _0x202003D
                 _0x202003C:
000803 35e8      	CPI  R30,LOW(0x58)
000804 f411      	BRNE _0x202003F
000805 6008      	ORI  R16,LOW(8)
000806 c003      	RJMP _0x2020040
                 _0x202003F:
000807 37e8      	CPI  R30,LOW(0x78)
000808 f009      	BREQ PC+2
000809 c08e      	RJMP _0x2020071
                 _0x2020040:
00080a ede0      	LDI  R30,LOW(_tbl16_G101*2)
00080b e0f4      	LDI  R31,HIGH(_tbl16_G101*2)
00080c d218      	RCALL SUBOPT_0x45
00080d e014      	LDI  R17,LOW(4)
                 _0x202003D:
00080e ff02      	SBRS R16,2
00080f c011      	RJMP _0x2020042
000810 d204      	RCALL SUBOPT_0x41
000811 d20c      	RCALL SUBOPT_0x43
000812 d117      	RCALL SUBOPT_0x14
000813 85ab      	LDD  R26,Y+11
000814 23aa      	TST  R26
000815 f42a      	BRPL _0x2020043
000816 85ea      	LDD  R30,Y+10
000817 85fb      	LDD  R31,Y+10+1
000818 d22c      	RCALL __ANEGW1
000819 d110      	RCALL SUBOPT_0x14
00081a e24d      	LDI  R20,LOW(45)
                 _0x2020043:
00081b 3040      	CPI  R20,0
00081c f011      	BREQ _0x2020044
00081d 5f1f      	SUBI R17,-LOW(1)
00081e c001      	RJMP _0x2020045
                 _0x2020044:
00081f 7f0b      	ANDI R16,LOW(251)
                 _0x2020045:
000820 c003      	RJMP _0x2020046
                 _0x2020042:
000821 d1f3      	RCALL SUBOPT_0x41
000822 d1fb      	RCALL SUBOPT_0x43
000823 d106      	RCALL SUBOPT_0x14
                 _0x2020046:
                 _0x2020036:
000824 fd00      	SBRC R16,0
000825 c010      	RJMP _0x2020047
                 _0x2020048:
000826 1715      	CP   R17,R21
000827 f470      	BRSH _0x202004A
000828 ff07      	SBRS R16,7
000829 c008      	RJMP _0x202004B
00082a ff02      	SBRS R16,2
00082b c004      	RJMP _0x202004C
00082c 7f0b      	ANDI R16,LOW(251)
00082d 2f24      	MOV  R18,R20
00082e 5011      	SUBI R17,LOW(1)
00082f c001      	RJMP _0x202004D
                 _0x202004C:
000830 e320      	LDI  R18,LOW(48)
                 _0x202004D:
000831 c001      	RJMP _0x202004E
                 _0x202004B:
000832 e220      	LDI  R18,LOW(32)
                 _0x202004E:
000833 d1da      	RCALL SUBOPT_0x40
000834 5051      	SUBI R21,LOW(1)
000835 cff0      	RJMP _0x2020048
                 _0x202004A:
                 _0x2020047:
000836 2f31      	MOV  R19,R17
000837 ff01      	SBRS R16,1
000838 c015      	RJMP _0x202004F
                 _0x2020050:
000839 3030      	CPI  R19,0
00083a f091      	BREQ _0x2020052
00083b ff03      	SBRS R16,3
00083c c005      	RJMP _0x2020053
00083d 81ee      	LDD  R30,Y+6
00083e 81ff      	LDD  R31,Y+6+1
00083f 9125      	LPM  R18,Z+
000840 d1e4      	RCALL SUBOPT_0x45
000841 c005      	RJMP _0x2020054
                 _0x2020053:
000842 81ae      	LDD  R26,Y+6
000843 81bf      	LDD  R27,Y+6+1
000844 912d      	LD   R18,X+
000845 83ae      	STD  Y+6,R26
000846 83bf      	STD  Y+6+1,R27
                 _0x2020054:
000847 d1c6      	RCALL SUBOPT_0x40
000848 3050      	CPI  R21,0
000849 f009      	BREQ _0x2020055
00084a 5051      	SUBI R21,LOW(1)
                 _0x2020055:
00084b 5031      	SUBI R19,LOW(1)
00084c cfec      	RJMP _0x2020050
                 _0x2020052:
00084d c041      	RJMP _0x2020056
                 _0x202004F:
                 _0x2020058:
00084e e320      	LDI  R18,LOW(48)
00084f 81ee      	LDD  R30,Y+6
000850 81ff      	LDD  R31,Y+6+1
000851 d277      	RCALL __GETW1PF
000852 87e8      	STD  Y+8,R30
000853 87f9      	STD  Y+8+1,R31
000854 81ee      	LDD  R30,Y+6
000855 81ff      	LDD  R31,Y+6+1
000856 9632      	ADIW R30,2
000857 d1cd      	RCALL SUBOPT_0x45
                 _0x202005A:
000858 85e8      	LDD  R30,Y+8
000859 85f9      	LDD  R31,Y+8+1
00085a d100      	RCALL SUBOPT_0x21
00085b d0d7      	RCALL SUBOPT_0x17
00085c f040      	BRLO _0x202005C
00085d 5f2f      	SUBI R18,-LOW(1)
00085e d0ff      	RCALL SUBOPT_0x22
00085f 85ea      	LDD  R30,Y+10
000860 85fb      	LDD  R31,Y+10+1
000861 1bea      	SUB  R30,R26
000862 0bfb      	SBC  R31,R27
000863 d0c6      	RCALL SUBOPT_0x14
000864 cff3      	RJMP _0x202005A
                 _0x202005C:
000865 332a      	CPI  R18,58
000866 f028      	BRLO _0x202005D
000867 ff03      	SBRS R16,3
000868 c002      	RJMP _0x202005E
000869 5f29      	SUBI R18,-LOW(7)
00086a c001      	RJMP _0x202005F
                 _0x202005E:
00086b 5d29      	SUBI R18,-LOW(39)
                 _0x202005F:
                 _0x202005D:
00086c fd04      	SBRC R16,4
00086d c018      	RJMP _0x2020061
00086e 3321      	CPI  R18,49
00086f f418      	BRSH _0x2020063
000870 d0ed      	RCALL SUBOPT_0x22
000871 9711      	SBIW R26,1
000872 f409      	BRNE _0x2020062
                 _0x2020063:
000873 c009      	RJMP _0x20200CD
                 _0x2020062:
000874 1753      	CP   R21,R19
000875 f010      	BRLO _0x2020067
000876 ff00      	SBRS R16,0
000877 c001      	RJMP _0x2020068
                 _0x2020067:
000878 c011      	RJMP _0x2020066
                 _0x2020068:
000879 e220      	LDI  R18,LOW(32)
00087a ff07      	SBRS R16,7
00087b c00a      	RJMP _0x2020069
00087c e320      	LDI  R18,LOW(48)
                 _0x20200CD:
00087d 6100      	ORI  R16,LOW(16)
00087e ff02      	SBRS R16,2
00087f c006      	RJMP _0x202006A
000880 7f0b      	ANDI R16,LOW(251)
000881 934a      	ST   -Y,R20
000882 d195      	RCALL SUBOPT_0x42
000883 3050      	CPI  R21,0
000884 f009      	BREQ _0x202006B
000885 5051      	SUBI R21,LOW(1)
                 _0x202006B:
                 _0x202006A:
                 _0x2020069:
                 _0x2020061:
000886 d187      	RCALL SUBOPT_0x40
000887 3050      	CPI  R21,0
000888 f009      	BREQ _0x202006C
000889 5051      	SUBI R21,LOW(1)
                 _0x202006C:
                 _0x2020066:
00088a 5031      	SUBI R19,LOW(1)
00088b d0d2      	RCALL SUBOPT_0x22
00088c 9712      	SBIW R26,2
00088d f008      	BRLO _0x2020059
00088e cfbf      	RJMP _0x2020058
                 _0x2020059:
                 _0x2020056:
00088f ff00      	SBRS R16,0
000890 c007      	RJMP _0x202006D
                 _0x202006E:
000891 3050      	CPI  R21,0
000892 f029      	BREQ _0x2020070
000893 5051      	SUBI R21,LOW(1)
000894 e2e0      	LDI  R30,LOW(32)
000895 93ea      	ST   -Y,R30
000896 d181      	RCALL SUBOPT_0x42
000897 cff9      	RJMP _0x202006E
                 _0x2020070:
                 _0x202006D:
                 _0x2020071:
                 _0x2020030:
                 _0x20200CC:
000898 e010      	LDI  R17,LOW(0)
                 _0x202001B:
000899 cefe      	RJMP _0x2020016
                 _0x2020018:
00089a 85ac      	LDD  R26,Y+12
00089b 85bd      	LDD  R27,Y+12+1
00089c d228      	RCALL __GETW1P
00089d d245      	RCALL __LOADLOCR6
                 _0x20A0002:
00089e 9664      	ADIW R28,20
00089f 9508      	RET
                 ; .FEND
                 _sprintf:
                 ; .FSTART _sprintf
0008a0 92ff      	PUSH R15
0008a1 2ef8      	MOV  R15,R24
0008a2 9726      	SBIW R28,6
0008a3 d23a      	RCALL __SAVELOCR4
0008a4 d183      	RCALL SUBOPT_0x46
0008a5 9730      	SBIW R30,0
0008a6 f411      	BRNE _0x2020072
0008a7 d085      	RCALL SUBOPT_0x15
0008a8 c01c      	RJMP _0x20A0001
                 _0x2020072:
0008a9 01de      	MOVW R26,R28
0008aa 9616      	ADIW R26,6
0008ab d18b      	RCALL __ADDW2R15
0008ac 018d      	MOVW R16,R26
0008ad d17a      	RCALL SUBOPT_0x46
0008ae d176      	RCALL SUBOPT_0x45
0008af e0e0      	LDI  R30,LOW(0)
0008b0 87e8      	STD  Y+8,R30
0008b1 87e9      	STD  Y+8+1,R30
0008b2 01de      	MOVW R26,R28
0008b3 961a      	ADIW R26,10
0008b4 d182      	RCALL __ADDW2R15
0008b5 d20f      	RCALL __GETW1P
0008b6 d0e4      	RCALL SUBOPT_0x2B
0008b7 931a      	ST   -Y,R17
0008b8 930a      	ST   -Y,R16
0008b9 e6e2      	LDI  R30,LOW(_put_buff_G101)
0008ba e0f7      	LDI  R31,HIGH(_put_buff_G101)
0008bb d0df      	RCALL SUBOPT_0x2B
0008bc 01de      	MOVW R26,R28
0008bd 961a      	ADIW R26,10
0008be decf      	RCALL __print_G101
0008bf 019f      	MOVW R18,R30
0008c0 81ae      	LDD  R26,Y+6
0008c1 81bf      	LDD  R27,Y+6+1
0008c2 e0e0      	LDI  R30,LOW(0)
0008c3 93ec      	ST   X,R30
0008c4 01f9      	MOVW R30,R18
                 _0x20A0001:
0008c5 d21f      	RCALL __LOADLOCR4
0008c6 962a      	ADIW R28,10
0008c7 90ff      	POP  R15
0008c8 9508      	RET
                 ; .FEND
                 
                 	.CSEG
                 
                 	.CSEG
                 
                 	.CSEG
                 _strlen:
                 ; .FSTART _strlen
0008c9 d02f      	RCALL SUBOPT_0x7
0008ca 91a9          ld   r26,y+
0008cb 91b9          ld   r27,y+
0008cc 27ee          clr  r30
0008cd 27ff          clr  r31
                 strlen0:
0008ce 916d          ld   r22,x+
0008cf 2366          tst  r22
0008d0 f011          breq strlen1
0008d1 9631          adiw r30,1
0008d2 cffb          rjmp strlen0
                 strlen1:
0008d3 9508          ret
                 ; .FEND
                 _strlenf:
                 ; .FSTART _strlenf
0008d4 d024      	RCALL SUBOPT_0x7
0008d5 27aa          clr  r26
0008d6 27bb          clr  r27
0008d7 91e9          ld   r30,y+
0008d8 91f9          ld   r31,y+
                 strlenf0:
0008d9 9005      	lpm  r0,z+
0008da 2000          tst  r0
0008db f011          breq strlenf1
0008dc 9611          adiw r26,1
0008dd cffb          rjmp strlenf0
                 strlenf1:
0008de 01fd          movw r30,r26
0008df 9508          ret
                 ; .FEND
                 
                 	.DSEG
                 _air_set:
0001b7           	.BYTE 0x2
                 _fan_set:
0001b9           	.BYTE 0x2
                 __seed_G100:
0001bb           	.BYTE 0x4
                 
                 	.CSEG
                 ;OPTIMIZER ADDED SUBROUTINE, CALLED 8 TIMES, CODE SIZE REDUCTION:5 WORDS
                 SUBOPT_0x0:
0008e0 9897      	CBI  0x12,7
0008e1 81e8      	LD   R30,Y
0008e2 9508      	RET
                 
                 ;OPTIMIZER ADDED SUBROUTINE, CALLED 7 TIMES, CODE SIZE REDUCTION:10 WORDS
                 SUBOPT_0x1:
0008e3 9a96      	SBI  0x12,6
0008e4 9896      	CBI  0x12,6
0008e5 cffa      	RJMP SUBOPT_0x0
                 
                 ;OPTIMIZER ADDED SUBROUTINE, CALLED 4 TIMES, CODE SIZE REDUCTION:1 WORDS
                 SUBOPT_0x2:
0008e6 81e9      	LDD  R30,Y+1
0008e7 30e0      	CPI  R30,0
0008e8 9508      	RET
                 
                 ;OPTIMIZER ADDED SUBROUTINE, CALLED 3 TIMES, CODE SIZE REDUCTION:2 WORDS
                 SUBOPT_0x3:
0008e9 d143      	RCALL _delay_ms
0008ea e0e0      	LDI  R30,LOW(0)
0008eb 93ea      	ST   -Y,R30
0008ec 9508      	RET
                 
                 ;OPTIMIZER ADDED SUBROUTINE, CALLED 4 TIMES, CODE SIZE REDUCTION:4 WORDS
                 SUBOPT_0x4:
0008ed da2e      	RCALL _Send_to_lcd
0008ee e0e0      	LDI  R30,LOW(0)
0008ef 93ea      	ST   -Y,R30
0008f0 9508      	RET
                 
                 ;OPTIMIZER ADDED SUBROUTINE, CALLED 10 TIMES, CODE SIZE REDUCTION:16 WORDS
                 SUBOPT_0x5:
0008f1 da2a      	RCALL _Send_to_lcd
0008f2 e0e1      	LDI  R30,LOW(1)
0008f3 93ea      	ST   -Y,R30
0008f4 9508      	RET
                 
                 ;OPTIMIZER ADDED SUBROUTINE, CALLED 2 TIMES, CODE SIZE REDUCTION:1 WORDS
                 SUBOPT_0x6:
0008f5 da26      	RCALL _Send_to_lcd
0008f6 e1a4      	LDI  R26,LOW(20)
0008f7 e0b0      	LDI  R27,0
0008f8 cff0      	RJMP SUBOPT_0x3
                 
                 ;OPTIMIZER ADDED SUBROUTINE, CALLED 14 TIMES, CODE SIZE REDUCTION:11 WORDS
                 SUBOPT_0x7:
0008f9 93ba      	ST   -Y,R27
0008fa 93aa      	ST   -Y,R26
0008fb 9508      	RET
                 
                 ;OPTIMIZER ADDED SUBROUTINE, CALLED 9 TIMES, CODE SIZE REDUCTION:6 WORDS
                 SUBOPT_0x8:
0008fc e0e0      	LDI  R30,LOW(0)
0008fd 93ea      	ST   -Y,R30
0008fe 9508      	RET
                 
                 ;OPTIMIZER ADDED SUBROUTINE, CALLED 13 TIMES, CODE SIZE REDUCTION:10 WORDS
                 SUBOPT_0x9:
0008ff e0e1      	LDI  R30,LOW(1)
000900 93ea      	ST   -Y,R30
000901 9508      	RET
                 
                 ;OPTIMIZER ADDED SUBROUTINE, CALLED 5 TIMES, CODE SIZE REDUCTION:6 WORDS
                 SUBOPT_0xA:
000902 35ea      	CPI  R30,LOW(0x5A)
000903 e0a0      	LDI  R26,HIGH(0x5A)
000904 07fa      	CPC  R31,R26
000905 9508      	RET
                 
                 ;OPTIMIZER ADDED SUBROUTINE, CALLED 3 TIMES, CODE SIZE REDUCTION:2 WORDS
                 SUBOPT_0xB:
000906 3be4      	CPI  R30,LOW(0xB4)
000907 e0a0      	LDI  R26,HIGH(0xB4)
000908 07fa      	CPC  R31,R26
000909 9508      	RET
                 
                 ;OPTIMIZER ADDED SUBROUTINE, CALLED 5 TIMES, CODE SIZE REDUCTION:6 WORDS
                 SUBOPT_0xC:
00090a 30ee      	CPI  R30,LOW(0x10E)
00090b e0a1      	LDI  R26,HIGH(0x10E)
00090c 07fa      	CPC  R31,R26
00090d 9508      	RET
                 
                 ;OPTIMIZER ADDED SUBROUTINE, CALLED 11 TIMES, CODE SIZE REDUCTION:18 WORDS
                 SUBOPT_0xD:
00090e e0f0      	LDI  R31,0
00090f 0fea      	ADD  R30,R26
000910 1ffb      	ADC  R31,R27
000911 9508      	RET
                 
                 ;OPTIMIZER ADDED SUBROUTINE, CALLED 4 TIMES, CODE SIZE REDUCTION:1 WORDS
                 SUBOPT_0xE:
000912 0fea      	ADD  R30,R26
000913 93ea      	ST   -Y,R30
000914 9508      	RET
                 
                 ;OPTIMIZER ADDED SUBROUTINE, CALLED 5 TIMES, CODE SIZE REDUCTION:2 WORDS
                 SUBOPT_0xF:
000915 85e9      	LDD  R30,Y+9
000916 85fa      	LDD  R31,Y+9+1
000917 9508      	RET
                 
                 ;OPTIMIZER ADDED SUBROUTINE, CALLED 6 TIMES, CODE SIZE REDUCTION:3 WORDS
                 SUBOPT_0x10:
000918 85e9      	LDD  R30,Y+9
000919 93ea      	ST   -Y,R30
00091a 9508      	RET
                 
                 ;OPTIMIZER ADDED SUBROUTINE, CALLED 4 TIMES, CODE SIZE REDUCTION:7 WORDS
                 SUBOPT_0x11:
00091b 85e8      	LDD  R30,Y+8
00091c 85f9      	LDD  R31,Y+8+1
00091d 93fa      	ST   -Y,R31
00091e 93ea      	ST   -Y,R30
00091f 9508      	RET
                 
                 ;OPTIMIZER ADDED SUBROUTINE, CALLED 2 TIMES, CODE SIZE REDUCTION:3 WORDS
                 SUBOPT_0x12:
000920 85ab      	LDD  R26,Y+11
000921 85bc      	LDD  R27,Y+11+1
000922 27ee      	CLR  R30
000923 0fa1      	ADD  R26,R17
000924 1fbe      	ADC  R27,R30
000925 91ec      	LD   R30,X
000926 9508      	RET
                 
                 ;OPTIMIZER ADDED SUBROUTINE, CALLED 4 TIMES, CODE SIZE REDUCTION:1 WORDS
                 SUBOPT_0x13:
000927 89ac      	LDD  R26,Y+20
000928 89bd      	LDD  R27,Y+20+1
000929 9508      	RET
                 
                 ;OPTIMIZER ADDED SUBROUTINE, CALLED 6 TIMES, CODE SIZE REDUCTION:3 WORDS
                 SUBOPT_0x14:
00092a 87ea      	STD  Y+10,R30
00092b 87fb      	STD  Y+10+1,R31
00092c 9508      	RET
                 
                 ;OPTIMIZER ADDED SUBROUTINE, CALLED 17 TIMES, CODE SIZE REDUCTION:14 WORDS
                 SUBOPT_0x15:
00092d efef      	LDI  R30,LOW(65535)
00092e efff      	LDI  R31,HIGH(65535)
00092f 9508      	RET
                 
                 ;OPTIMIZER ADDED SUBROUTINE, CALLED 5 TIMES, CODE SIZE REDUCTION:2 WORDS
                 SUBOPT_0x16:
000930 89ea      	LDD  R30,Y+18
000931 89fb      	LDD  R31,Y+18+1
000932 9508      	RET
                 
                 ;OPTIMIZER ADDED SUBROUTINE, CALLED 5 TIMES, CODE SIZE REDUCTION:2 WORDS
                 SUBOPT_0x17:
000933 17ae      	CP   R26,R30
000934 07bf      	CPC  R27,R31
000935 9508      	RET
                 
                 ;OPTIMIZER ADDED SUBROUTINE, CALLED 5 TIMES, CODE SIZE REDUCTION:2 WORDS
                 SUBOPT_0x18:
000936 89a8      	LDD  R26,Y+16
000937 89b9      	LDD  R27,Y+16+1
000938 9508      	RET
                 
                 ;OPTIMIZER ADDED SUBROUTINE, CALLED 2 TIMES, CODE SIZE REDUCTION:1 WORDS
                 SUBOPT_0x19:
000939 85ea      	LDD  R30,Y+10
00093a 85fb      	LDD  R31,Y+10+1
                +
00093b 0f0e     +ADD R16 , R30
00093c 1f1f     +ADC R17 , R31
                 	__ADDWRR 16,17,30,31
00093d 9508      	RET
                 
                 ;OPTIMIZER ADDED SUBROUTINE, CALLED 2 TIMES, CODE SIZE REDUCTION:1 WORDS
                 SUBOPT_0x1A:
00093e 85e8      	LDD  R30,Y+8
00093f 85f9      	LDD  R31,Y+8+1
                +
000940 0f2e     +ADD R18 , R30
000941 1f3f     +ADC R19 , R31
                 	__ADDWRR 18,19,30,31
000942 9508      	RET
                 
                 ;OPTIMIZER ADDED SUBROUTINE, CALLED 7 TIMES, CODE SIZE REDUCTION:4 WORDS
                 SUBOPT_0x1B:
000943 89e8      	LDD  R30,Y+16
000944 89f9      	LDD  R31,Y+16+1
000945 9508      	RET
                 
                 ;OPTIMIZER ADDED SUBROUTINE, CALLED 6 TIMES, CODE SIZE REDUCTION:3 WORDS
                 SUBOPT_0x1C:
000946 8be8      	STD  Y+16,R30
000947 8bf9      	STD  Y+16+1,R31
000948 9508      	RET
                 
                 ;OPTIMIZER ADDED SUBROUTINE, CALLED 2 TIMES, CODE SIZE REDUCTION:1 WORDS
                 SUBOPT_0x1D:
                +
000949 85ac     +LDD R26 , Y + 12
00094a 85bd     +LDD R27 , Y + 12 + 1
00094b 858e     +LDD R24 , Y + 12 + 2
00094c 859f     +LDD R25 , Y + 12 + 3
                 	__GETD2S 12
00094d 9508      	RET
                 
                 ;OPTIMIZER ADDED SUBROUTINE, CALLED 2 TIMES, CODE SIZE REDUCTION:1 WORDS
                 SUBOPT_0x1E:
                +
00094e 81ac     +LDD R26 , Y + 4
00094f 81bd     +LDD R27 , Y + 4 + 1
000950 818e     +LDD R24 , Y + 4 + 2
000951 819f     +LDD R25 , Y + 4 + 3
                 	__GETD2S 4
000952 9508      	RET
                 
                 ;OPTIMIZER ADDED SUBROUTINE, CALLED 8 TIMES, CODE SIZE REDUCTION:19 WORDS
                 SUBOPT_0x1F:
000953 2fe3      	MOV  R30,R19
000954 81ac      	LDD  R26,Y+4
000955 81bd      	LDD  R27,Y+4+1
000956 cfb7      	RJMP SUBOPT_0xD
                 
                 ;OPTIMIZER ADDED SUBROUTINE, CALLED 16 TIMES, CODE SIZE REDUCTION:28 WORDS
                 SUBOPT_0x20:
000957 930a      	ST   -Y,R16
000958 931a      	ST   -Y,R17
000959 9513      	INC  R17
00095a 9508      	RET
                 
                 ;OPTIMIZER ADDED SUBROUTINE, CALLED 9 TIMES, CODE SIZE REDUCTION:6 WORDS
                 SUBOPT_0x21:
00095b 85aa      	LDD  R26,Y+10
00095c 85bb      	LDD  R27,Y+10+1
00095d 9508      	RET
                 
                 ;OPTIMIZER ADDED SUBROUTINE, CALLED 11 TIMES, CODE SIZE REDUCTION:8 WORDS
                 SUBOPT_0x22:
00095e 85a8      	LDD  R26,Y+8
00095f 85b9      	LDD  R27,Y+8+1
000960 9508      	RET
                 
                 ;OPTIMIZER ADDED SUBROUTINE, CALLED 2 TIMES, CODE SIZE REDUCTION:24 WORDS
                 SUBOPT_0x23:
000961 df97      	RCALL SUBOPT_0x7
000962 9725      	SBIW R28,5
000963 01fe      	MOVW R30,R28
000964 93fa      	ST   -Y,R31
000965 93ea      	ST   -Y,R30
                +
000966 eee4     +LDI R30 , LOW ( 2 * _0x0 + ( 0 ) )
000967 e0f4     +LDI R31 , HIGH ( 2 * _0x0 + ( 0 ) )
                 	__POINTW1FN _0x0,0
000968 93fa      	ST   -Y,R31
000969 93ea      	ST   -Y,R30
00096a dfaa      	RCALL SUBOPT_0xF
00096b d0ea      	RCALL __CWD1
00096c d165      	RCALL __PUTPARD1
00096d e084      	LDI  R24,4
00096e df31      	RCALL _sprintf
00096f 9628      	ADIW R28,8
000970 e0e0      	LDI  R30,LOW(0)
000971 83eb      	STD  Y+3,R30
000972 01fe      	MOVW R30,R28
000973 93fa      	ST   -Y,R31
000974 93ea      	ST   -Y,R30
000975 e3e2      	LDI  R30,LOW(50)
000976 e0f0      	LDI  R31,HIGH(50)
000977 93fa      	ST   -Y,R31
000978 93ea      	ST   -Y,R30
000979 9508      	RET
                 
                 ;OPTIMIZER ADDED SUBROUTINE, CALLED 3 TIMES, CODE SIZE REDUCTION:4 WORDS
                 SUBOPT_0x24:
00097a e0ea      	LDI  R30,LOW(10)
00097b e0f0      	LDI  R31,HIGH(10)
00097c 93fa      	ST   -Y,R31
00097d 93ea      	ST   -Y,R30
00097e 9508      	RET
                 
                 ;OPTIMIZER ADDED SUBROUTINE, CALLED 6 TIMES, CODE SIZE REDUCTION:13 WORDS
                 SUBOPT_0x25:
00097f 01fe      	MOVW R30,R28
000980 93fa      	ST   -Y,R31
000981 93ea      	ST   -Y,R30
000982 9508      	RET
                 
                 ;OPTIMIZER ADDED SUBROUTINE, CALLED 2 TIMES, CODE SIZE REDUCTION:1 WORDS
                 SUBOPT_0x26:
                +
000983 eee4     +LDI R30 , LOW ( 2 * _0x0 + ( 0 ) )
000984 e0f4     +LDI R31 , HIGH ( 2 * _0x0 + ( 0 ) )
                 	__POINTW1FN _0x0,0
000985 93fa      	ST   -Y,R31
000986 93ea      	ST   -Y,R30
000987 9508      	RET
                 
                 ;OPTIMIZER ADDED SUBROUTINE, CALLED 2 TIMES, CODE SIZE REDUCTION:2 WORDS
                 SUBOPT_0x27:
000988 81ed      	LDD  R30,Y+5
000989 81fe      	LDD  R31,Y+5+1
00098a d0cb      	RCALL __CWD1
00098b d146      	RCALL __PUTPARD1
00098c 9508      	RET
                 
                 ;OPTIMIZER ADDED SUBROUTINE, CALLED 2 TIMES, CODE SIZE REDUCTION:3 WORDS
                 SUBOPT_0x28:
00098d e084      	LDI  R24,4
00098e df11      	RCALL _sprintf
00098f 9628      	ADIW R28,8
000990 e0e0      	LDI  R30,LOW(0)
000991 83eb      	STD  Y+3,R30
000992 cfec      	RJMP SUBOPT_0x25
                 
                 ;OPTIMIZER ADDED SUBROUTINE, CALLED 2 TIMES, CODE SIZE REDUCTION:1 WORDS
                 SUBOPT_0x29:
000993 e7ea      	LDI  R30,LOW(122)
000994 e0f0      	LDI  R31,HIGH(122)
000995 93fa      	ST   -Y,R31
000996 93ea      	ST   -Y,R30
000997 9508      	RET
                 
                 ;OPTIMIZER ADDED SUBROUTINE, CALLED 6 TIMES, CODE SIZE REDUCTION:3 WORDS
                 SUBOPT_0x2A:
000998 e0e0      	LDI  R30,LOW(63488)
000999 eff8      	LDI  R31,HIGH(63488)
00099a 9508      	RET
                 
                 ;OPTIMIZER ADDED SUBROUTINE, CALLED 53 TIMES, CODE SIZE REDUCTION:50 WORDS
                 SUBOPT_0x2B:
00099b 93fa      	ST   -Y,R31
00099c 93ea      	ST   -Y,R30
00099d 9508      	RET
                 
                 ;OPTIMIZER ADDED SUBROUTINE, CALLED 4 TIMES, CODE SIZE REDUCTION:13 WORDS
                 SUBOPT_0x2C:
00099e df8e      	RCALL SUBOPT_0x15
00099f dffb      	RCALL SUBOPT_0x2B
0009a0 e0e3      	LDI  R30,LOW(3)
0009a1 93ea      	ST   -Y,R30
0009a2 e0a3      	LDI  R26,LOW(3)
0009a3 ca85      	RJMP _LCD_Puts
                 
                 ;OPTIMIZER ADDED SUBROUTINE, CALLED 7 TIMES, CODE SIZE REDUCTION:10 WORDS
                 SUBOPT_0x2D:
0009a4 e3e2      	LDI  R30,LOW(50)
0009a5 e0f0      	LDI  R31,HIGH(50)
0009a6 cff4      	RJMP SUBOPT_0x2B
                 
                 ;OPTIMIZER ADDED SUBROUTINE, CALLED 2 TIMES, CODE SIZE REDUCTION:1 WORDS
                 SUBOPT_0x2E:
0009a7 df6d      	RCALL SUBOPT_0xF
0009a8 d0ad      	RCALL __CWD1
0009a9 d128      	RCALL __PUTPARD1
0009aa 9508      	RET
                 
                 ;OPTIMIZER ADDED SUBROUTINE, CALLED 4 TIMES, CODE SIZE REDUCTION:4 WORDS
                 SUBOPT_0x2F:
0009ab dfef      	RCALL SUBOPT_0x2B
0009ac e0e0      	LDI  R30,LOW(0)
0009ad e0f0      	LDI  R31,HIGH(0)
0009ae 9508      	RET
                 
                 ;OPTIMIZER ADDED SUBROUTINE, CALLED 4 TIMES, CODE SIZE REDUCTION:67 WORDS
                 SUBOPT_0x30:
0009af dcd7      	RCALL _read_adc
0009b0 2766      	CLR  R22
0009b1 2777      	CLR  R23
0009b2 d11f      	RCALL __PUTPARD1
                +
0009b3 e0e0     +LDI R30 , LOW ( 0x0 )
0009b4 e0f0     +LDI R31 , HIGH ( 0x0 )
0009b5 e060     +LDI R22 , BYTE3 ( 0x0 )
0009b6 e070     +LDI R23 , BYTE4 ( 0x0 )
                 	__GETD1N 0x0
0009b7 d11a      	RCALL __PUTPARD1
                +
0009b8 efef     +LDI R30 , LOW ( 0x3FF )
0009b9 e0f3     +LDI R31 , HIGH ( 0x3FF )
0009ba e060     +LDI R22 , BYTE3 ( 0x3FF )
0009bb e070     +LDI R23 , BYTE4 ( 0x3FF )
                 	__GETD1N 0x3FF
0009bc d115      	RCALL __PUTPARD1
                +
0009bd e0e0     +LDI R30 , LOW ( 0x0 )
0009be e0f0     +LDI R31 , HIGH ( 0x0 )
0009bf e060     +LDI R22 , BYTE3 ( 0x0 )
0009c0 e070     +LDI R23 , BYTE4 ( 0x0 )
                 	__GETD1N 0x0
0009c1 d110      	RCALL __PUTPARD1
                +
0009c2 eea0     +LDI R26 , LOW ( 0x1E0 )
0009c3 e0b1     +LDI R27 , HIGH ( 0x1E0 )
0009c4 e080     +LDI R24 , BYTE3 ( 0x1E0 )
0009c5 e090     +LDI R25 , BYTE4 ( 0x1E0 )
                 	__GETD2N 0x1E0
0009c6 cb49      	RJMP _map
                 
                 ;OPTIMIZER ADDED SUBROUTINE, CALLED 2 TIMES, CODE SIZE REDUCTION:3 WORDS
                 SUBOPT_0x31:
0009c7 d10a      	RCALL __PUTPARD1
                +
0009c8 e0e0     +LDI R30 , LOW ( 0x0 )
0009c9 e0f0     +LDI R31 , HIGH ( 0x0 )
0009ca e060     +LDI R22 , BYTE3 ( 0x0 )
0009cb e070     +LDI R23 , BYTE4 ( 0x0 )
                 	__GETD1N 0x0
0009cc d105      	RCALL __PUTPARD1
0009cd 9508      	RET
                 
                 ;OPTIMIZER ADDED SUBROUTINE, CALLED 4 TIMES, CODE SIZE REDUCTION:4 WORDS
                 SUBOPT_0x32:
0009ce 01d6      	MOVW R26,R12
0009cf 19a8      	SUB  R26,R8
0009d0 09b9      	SBC  R27,R9
0009d1 9508      	RET
                 
                 ;OPTIMIZER ADDED SUBROUTINE, CALLED 3 TIMES, CODE SIZE REDUCTION:4 WORDS
                 SUBOPT_0x33:
0009d2 91a0 01b7 	LDS  R26,_air_set
0009d4 91b0 01b8 	LDS  R27,_air_set+1
0009d6 9508      	RET
                 
                 ;OPTIMIZER ADDED SUBROUTINE, CALLED 6 TIMES, CODE SIZE REDUCTION:3 WORDS
                 SUBOPT_0x34:
0009d7 93ea      	ST   -Y,R30
0009d8 e2e0      	LDI  R30,LOW(32)
0009d9 9508      	RET
                 
                 ;OPTIMIZER ADDED SUBROUTINE, CALLED 3 TIMES, CODE SIZE REDUCTION:8 WORDS
                 SUBOPT_0x35:
0009da 93ea      	ST   -Y,R30
0009db e1ef      	LDI  R30,LOW(31)
0009dc e0f0      	LDI  R31,HIGH(31)
0009dd dfbd      	RCALL SUBOPT_0x2B
0009de df4e      	RCALL SUBOPT_0x15
0009df cfbb      	RJMP SUBOPT_0x2B
                 
                 ;OPTIMIZER ADDED SUBROUTINE, CALLED 3 TIMES, CODE SIZE REDUCTION:2 WORDS
                 SUBOPT_0x36:
0009e0 93ea      	ST   -Y,R30
0009e1 eaef      	LDI  R30,LOW(175)
0009e2 93ea      	ST   -Y,R30
0009e3 9508      	RET
                 
                 ;OPTIMIZER ADDED SUBROUTINE, CALLED 3 TIMES, CODE SIZE REDUCTION:4 WORDS
                 SUBOPT_0x37:
0009e4 93ea      	ST   -Y,R30
0009e5 e0a0      	LDI  R26,LOW(0)
0009e6 e0b0      	LDI  R27,0
0009e7 ca7f      	RJMP _LCD_DrawLine
                 
                 ;OPTIMIZER ADDED SUBROUTINE, CALLED 5 TIMES, CODE SIZE REDUCTION:10 WORDS
                 SUBOPT_0x38:
0009e8 dfb2      	RCALL SUBOPT_0x2B
0009e9 df43      	RCALL SUBOPT_0x15
0009ea dfb0      	RCALL SUBOPT_0x2B
0009eb cf13      	RJMP SUBOPT_0x9
                 
                 ;OPTIMIZER ADDED SUBROUTINE, CALLED 5 TIMES, CODE SIZE REDUCTION:2 WORDS
                 SUBOPT_0x39:
0009ec e0a1      	LDI  R26,LOW(1)
0009ed ca3b      	RJMP _LCD_Puts
                 
                 ;OPTIMIZER ADDED SUBROUTINE, CALLED 2 TIMES, CODE SIZE REDUCTION:5 WORDS
                 SUBOPT_0x3A:
0009ee e0ef      	LDI  R30,LOW(15)
0009ef e0f0      	LDI  R31,HIGH(15)
0009f0 dfaa      	RCALL SUBOPT_0x2B
0009f1 e1ee      	LDI  R30,LOW(30)
0009f2 e0f0      	LDI  R31,HIGH(30)
0009f3 dfa7      	RCALL SUBOPT_0x2B
0009f4 dfa3      	RCALL SUBOPT_0x2A
0009f5 cff2      	RJMP SUBOPT_0x38
                 
                 ;OPTIMIZER ADDED SUBROUTINE, CALLED 2 TIMES, CODE SIZE REDUCTION:1 WORDS
                 SUBOPT_0x3B:
0009f6 e0e0      	LDI  R30,LOW(0)
0009f7 e0f0      	LDI  R31,HIGH(0)
0009f8 dfa2      	RCALL SUBOPT_0x2B
0009f9 cfa4      	RJMP SUBOPT_0x2C
                 
                 ;OPTIMIZER ADDED SUBROUTINE, CALLED 2 TIMES, CODE SIZE REDUCTION:5 WORDS
                 SUBOPT_0x3C:
0009fa e0ef      	LDI  R30,LOW(15)
0009fb e0f0      	LDI  R31,HIGH(15)
0009fc df9e      	RCALL SUBOPT_0x2B
0009fd e4e6      	LDI  R30,LOW(70)
0009fe e0f0      	LDI  R31,HIGH(70)
0009ff df9b      	RCALL SUBOPT_0x2B
000a00 df97      	RCALL SUBOPT_0x2A
000a01 cfe6      	RJMP SUBOPT_0x38
                 
                 ;OPTIMIZER ADDED SUBROUTINE, CALLED 6 TIMES, CODE SIZE REDUCTION:3 WORDS
                 SUBOPT_0x3D:
000a02 81aa      	LDD  R26,Y+2
000a03 81bb      	LDD  R27,Y+2+1
000a04 9508      	RET
                 
                 ;OPTIMIZER ADDED SUBROUTINE, CALLED 5 TIMES, CODE SIZE REDUCTION:2 WORDS
                 SUBOPT_0x3E:
000a05 9614      	ADIW R26,4
000a06 d0be      	RCALL __GETW1P
000a07 9508      	RET
                 
                 ;OPTIMIZER ADDED SUBROUTINE, CALLED 2 TIMES, CODE SIZE REDUCTION:2 WORDS
                 SUBOPT_0x3F:
000a08 91ed      	LD   R30,X+
000a09 91fd      	LD   R31,X+
000a0a 9631      	ADIW R30,1
000a0b 93fe      	ST   -X,R31
000a0c 93ee      	ST   -X,R30
000a0d 9508      	RET
                 
                 ;OPTIMIZER ADDED SUBROUTINE, CALLED 5 TIMES, CODE SIZE REDUCTION:18 WORDS
                 SUBOPT_0x40:
000a0e 932a      	ST   -Y,R18
000a0f 85ad      	LDD  R26,Y+13
000a10 85be      	LDD  R27,Y+13+1
000a11 85ef      	LDD  R30,Y+15
000a12 89f8      	LDD  R31,Y+15+1
000a13 9509      	ICALL
000a14 9508      	RET
                 
                 ;OPTIMIZER ADDED SUBROUTINE, CALLED 5 TIMES, CODE SIZE REDUCTION:6 WORDS
                 SUBOPT_0x41:
000a15 df2d      	RCALL SUBOPT_0x1B
000a16 9734      	SBIW R30,4
000a17 cf2e      	RJMP SUBOPT_0x1C
                 
                 ;OPTIMIZER ADDED SUBROUTINE, CALLED 3 TIMES, CODE SIZE REDUCTION:6 WORDS
                 SUBOPT_0x42:
000a18 85ad      	LDD  R26,Y+13
000a19 85be      	LDD  R27,Y+13+1
000a1a 85ef      	LDD  R30,Y+15
000a1b 89f8      	LDD  R31,Y+15+1
000a1c 9509      	ICALL
000a1d 9508      	RET
                 
                 ;OPTIMIZER ADDED SUBROUTINE, CALLED 4 TIMES, CODE SIZE REDUCTION:1 WORDS
                 SUBOPT_0x43:
000a1e df17      	RCALL SUBOPT_0x18
000a1f cfe5      	RJMP SUBOPT_0x3E
                 
                 ;OPTIMIZER ADDED SUBROUTINE, CALLED 2 TIMES, CODE SIZE REDUCTION:1 WORDS
                 SUBOPT_0x44:
000a20 83ee      	STD  Y+6,R30
000a21 83ff      	STD  Y+6+1,R31
000a22 81ae      	LDD  R26,Y+6
000a23 81bf      	LDD  R27,Y+6+1
000a24 9508      	RET
                 
                 ;OPTIMIZER ADDED SUBROUTINE, CALLED 5 TIMES, CODE SIZE REDUCTION:2 WORDS
                 SUBOPT_0x45:
000a25 83ee      	STD  Y+6,R30
000a26 83ff      	STD  Y+6+1,R31
000a27 9508      	RET
                 
                 ;OPTIMIZER ADDED SUBROUTINE, CALLED 2 TIMES, CODE SIZE REDUCTION:1 WORDS
                 SUBOPT_0x46:
000a28 01de      	MOVW R26,R28
000a29 961c      	ADIW R26,12
000a2a d00c      	RCALL __ADDW2R15
000a2b d099      	RCALL __GETW1P
000a2c 9508      	RET
                 
                 
                 	.CSEG
                 _delay_ms:
000a2d 9610      	adiw r26,0
000a2e f039      	breq __delay_ms1
                 __delay_ms0:
                +
000a2f ed80     +LDI R24 , LOW ( 0x7D0 )
000a30 e097     +LDI R25 , HIGH ( 0x7D0 )
                +__DELAY_USW_LOOP :
000a31 9701     +SBIW R24 , 1
000a32 f7f1     +BRNE __DELAY_USW_LOOP
                 	__DELAY_USW 0x7D0
000a33 95a8      	wdr
000a34 9711      	sbiw r26,1
000a35 f7c9      	brne __delay_ms0
                 __delay_ms1:
000a36 9508      	ret
                 
                 __ADDW2R15:
000a37 2400      	CLR  R0
000a38 0daf      	ADD  R26,R15
000a39 1db0      	ADC  R27,R0
000a3a 9508      	RET
                 
                 __ADDD21:
000a3b 0fae      	ADD  R26,R30
000a3c 1fbf      	ADC  R27,R31
000a3d 1f86      	ADC  R24,R22
000a3e 1f97      	ADC  R25,R23
000a3f 9508      	RET
                 
                 __SUBD12:
000a40 1bea      	SUB  R30,R26
000a41 0bfb      	SBC  R31,R27
000a42 0b68      	SBC  R22,R24
000a43 0b79      	SBC  R23,R25
000a44 9508      	RET
                 
                 __ANEGW1:
000a45 95f1      	NEG  R31
000a46 95e1      	NEG  R30
000a47 40f0      	SBCI R31,0
000a48 9508      	RET
                 
                 __ANEGD1:
000a49 95f0      	COM  R31
000a4a 9560      	COM  R22
000a4b 9570      	COM  R23
000a4c 95e1      	NEG  R30
000a4d 4fff      	SBCI R31,-1
000a4e 4f6f      	SBCI R22,-1
000a4f 4f7f      	SBCI R23,-1
000a50 9508      	RET
                 
                 __ASRW8:
000a51 2fef      	MOV  R30,R31
000a52 27ff      	CLR  R31
000a53 fde7      	SBRC R30,7
000a54 efff      	SER  R31
000a55 9508      	RET
                 
                 __CWD1:
000a56 2f6f      	MOV  R22,R31
000a57 0f66      	ADD  R22,R22
000a58 0b66      	SBC  R22,R22
000a59 2f76      	MOV  R23,R22
000a5a 9508      	RET
                 
                 __MULW12U:
000a5b 9ffa      	MUL  R31,R26
000a5c 2df0      	MOV  R31,R0
000a5d 9feb      	MUL  R30,R27
000a5e 0df0      	ADD  R31,R0
000a5f 9fea      	MUL  R30,R26
000a60 2de0      	MOV  R30,R0
000a61 0df1      	ADD  R31,R1
000a62 9508      	RET
                 
                 __MULD12U:
000a63 9f7a      	MUL  R23,R26
000a64 2d70      	MOV  R23,R0
000a65 9f6b      	MUL  R22,R27
000a66 0d70      	ADD  R23,R0
000a67 9ff8      	MUL  R31,R24
000a68 0d70      	ADD  R23,R0
000a69 9fe9      	MUL  R30,R25
000a6a 0d70      	ADD  R23,R0
000a6b 9f6a      	MUL  R22,R26
000a6c 2d60      	MOV  R22,R0
000a6d 0d71      	ADD  R23,R1
000a6e 9ffb      	MUL  R31,R27
000a6f 0d60      	ADD  R22,R0
000a70 1d71      	ADC  R23,R1
000a71 9fe8      	MUL  R30,R24
000a72 0d60      	ADD  R22,R0
000a73 1d71      	ADC  R23,R1
000a74 2788      	CLR  R24
000a75 9ffa      	MUL  R31,R26
000a76 2df0      	MOV  R31,R0
000a77 0d61      	ADD  R22,R1
000a78 1f78      	ADC  R23,R24
000a79 9feb      	MUL  R30,R27
000a7a 0df0      	ADD  R31,R0
000a7b 1d61      	ADC  R22,R1
000a7c 1f78      	ADC  R23,R24
000a7d 9fea      	MUL  R30,R26
000a7e 2de0      	MOV  R30,R0
000a7f 0df1      	ADD  R31,R1
000a80 1f68      	ADC  R22,R24
000a81 1f78      	ADC  R23,R24
000a82 9508      	RET
                 
                 __MULD12:
000a83 d02e      	RCALL __CHKSIGND
000a84 dfde      	RCALL __MULD12U
000a85 f40e      	BRTC __MULD121
000a86 dfc2      	RCALL __ANEGD1
                 __MULD121:
000a87 9508      	RET
                 
                 __DIVD21U:
000a88 933f      	PUSH R19
000a89 934f      	PUSH R20
000a8a 935f      	PUSH R21
000a8b 2400      	CLR  R0
000a8c 2411      	CLR  R1
000a8d 2744      	CLR  R20
000a8e 2755      	CLR  R21
000a8f e230      	LDI  R19,32
                 __DIVD21U1:
000a90 0faa      	LSL  R26
000a91 1fbb      	ROL  R27
000a92 1f88      	ROL  R24
000a93 1f99      	ROL  R25
000a94 1c00      	ROL  R0
000a95 1c11      	ROL  R1
000a96 1f44      	ROL  R20
000a97 1f55      	ROL  R21
000a98 1a0e      	SUB  R0,R30
000a99 0a1f      	SBC  R1,R31
000a9a 0b46      	SBC  R20,R22
000a9b 0b57      	SBC  R21,R23
000a9c f428      	BRCC __DIVD21U2
000a9d 0e0e      	ADD  R0,R30
000a9e 1e1f      	ADC  R1,R31
000a9f 1f46      	ADC  R20,R22
000aa0 1f57      	ADC  R21,R23
000aa1 c001      	RJMP __DIVD21U3
                 __DIVD21U2:
000aa2 60a1      	SBR  R26,1
                 __DIVD21U3:
000aa3 953a      	DEC  R19
000aa4 f759      	BRNE __DIVD21U1
000aa5 01fd      	MOVW R30,R26
000aa6 01bc      	MOVW R22,R24
000aa7 01d0      	MOVW R26,R0
000aa8 01ca      	MOVW R24,R20
000aa9 915f      	POP  R21
000aaa 914f      	POP  R20
000aab 913f      	POP  R19
000aac 9508      	RET
                 
                 __DIVD21:
000aad d004      	RCALL __CHKSIGND
000aae dfd9      	RCALL __DIVD21U
000aaf f40e      	BRTC __DIVD211
000ab0 df98      	RCALL __ANEGD1
                 __DIVD211:
000ab1 9508      	RET
                 
                 __CHKSIGND:
000ab2 94e8      	CLT
000ab3 ff77      	SBRS R23,7
000ab4 c002      	RJMP __CHKSD1
000ab5 df93      	RCALL __ANEGD1
000ab6 9468      	SET
                 __CHKSD1:
000ab7 ff97      	SBRS R25,7
000ab8 c00b      	RJMP __CHKSD2
000ab9 2400      	CLR  R0
000aba 95a0      	COM  R26
000abb 95b0      	COM  R27
000abc 9580      	COM  R24
000abd 9590      	COM  R25
000abe 9611      	ADIW R26,1
000abf 1d80      	ADC  R24,R0
000ac0 1d90      	ADC  R25,R0
000ac1 f800      	BLD  R0,0
000ac2 9403      	INC  R0
000ac3 fa00      	BST  R0,0
                 __CHKSD2:
000ac4 9508      	RET
                 
                 __GETW1P:
000ac5 91ed      	LD   R30,X+
000ac6 91fc      	LD   R31,X
000ac7 9711      	SBIW R26,1
000ac8 9508      	RET
                 
                 __GETW1PF:
000ac9 9005      	LPM  R0,Z+
000aca 91f4      	LPM  R31,Z
000acb 2de0      	MOV  R30,R0
000acc 9508      	RET
                 
                 __GETD1S0:
000acd 81e8      	LD   R30,Y
000ace 81f9      	LDD  R31,Y+1
000acf 816a      	LDD  R22,Y+2
000ad0 817b      	LDD  R23,Y+3
000ad1 9508      	RET
                 
                 __PUTPARD1:
000ad2 937a      	ST   -Y,R23
000ad3 936a      	ST   -Y,R22
000ad4 93fa      	ST   -Y,R31
000ad5 93ea      	ST   -Y,R30
000ad6 9508      	RET
                 
                 __PUTPARD2:
000ad7 939a      	ST   -Y,R25
000ad8 938a      	ST   -Y,R24
000ad9 93ba      	ST   -Y,R27
000ada 93aa      	ST   -Y,R26
000adb 9508      	RET
                 
                 __SAVELOCR6:
000adc 935a      	ST   -Y,R21
                 __SAVELOCR5:
000add 934a      	ST   -Y,R20
                 __SAVELOCR4:
000ade 933a      	ST   -Y,R19
                 __SAVELOCR3:
000adf 932a      	ST   -Y,R18
                 __SAVELOCR2:
000ae0 931a      	ST   -Y,R17
000ae1 930a      	ST   -Y,R16
000ae2 9508      	RET
                 
                 __LOADLOCR6:
000ae3 815d      	LDD  R21,Y+5
                 __LOADLOCR5:
000ae4 814c      	LDD  R20,Y+4
                 __LOADLOCR4:
000ae5 813b      	LDD  R19,Y+3
                 __LOADLOCR3:
000ae6 812a      	LDD  R18,Y+2
                 __LOADLOCR2:
000ae7 8119      	LDD  R17,Y+1
000ae8 8108      	LD   R16,Y
000ae9 9508      	RET
                 
                 ;END OF CODE MARKER
                 __END_OF_CODE:


RESOURCE USE INFORMATION
------------------------

Notice:
The register and instruction counts are symbol table hit counts,
and hence implicitly used resources are not counted, eg, the
'lpm' instruction without operands implicitly uses r0 and z,
none of which are counted.

x,y,z are separate entities in the symbol table and are
counted separately from r26..r31 here.

.dseg memory usage only counts static data declared with .byte

ATmega8 register use summary:
r0 :  39 r1 :  14 r2 :   9 r3 :   0 r4 :   6 r5 :   1 r6 :   3 r7 :   3 
r8 :   5 r9 :   3 r10:   5 r11:   3 r12:   5 r13:   2 r14:   0 r15:   6 
r16:  47 r17:  39 r18:  40 r19:  20 r20:  25 r21:  31 r22:  44 r23:  38 
r24:  40 r25:  21 r26: 207 r27:  78 r28:  31 r29:   1 r30: 497 r31: 162 
x  :  19 y  : 364 z  :  23 
Registers used: 33 out of 35 (94.3%)

ATmega8 instruction use summary:
.lds  :   0 .lds.l:   0 .sts  :   0 .sts.l:   0 adc   :  22 add   :  28 
adiw  :  32 and   :   1 andi  :  20 asr   :   0 bclr  :   0 bld   :   3 
brbc  :   0 brbs  :   0 brcc  :   1 brcs  :   0 break :   0 breq  :  37 
brge  :   7 brhc  :   0 brhs  :   0 brid  :   0 brie  :   0 brlo  :   9 
brlt  :   7 brmi  :   1 brne  :  53 brpl  :   4 brsh  :   4 brtc  :   2 
brts  :   0 brvc  :   0 brvs  :   0 bset  :   0 bst   :   1 cbi   :  11 
cbr   :   0 clc   :   0 clh   :   0 cli   :   1 cln   :   0 clr   :  26 
cls   :   0 clt   :   3 clv   :   0 clz   :   0 com   :   7 cp    :  11 
cpc   :  11 cpi   :  52 cpse  :   0 dec   :   3 des   :   0 eor   :   1 
fmul  :   0 fmuls :   0 fmulsu:   0 icall :   2 ijmp  :   0 in    :   4 
inc   :   3 ld    :  28 ldd   : 184 ldi   : 301 lds   :   4 lpm   :  32 
lsl   :   9 lsr   :   0 mov   :  31 movw  :  38 mul   :  14 muls  :   2 
mulsu :   0 neg   :   3 nop   :   0 or    :   0 ori   :   7 out   :  52 
pop   :  12 push  :  12 rcall : 430 ret   :  95 reti  :   1 rjmp  : 155 
rol   :   8 ror   :   0 sbc   :  13 sbci  :   6 sbi   :  20 sbic  :   2 
sbis  :   2 sbiw  :  34 sbr   :   1 sbrc  :   4 sbrs  :  17 sec   :   0 
seh   :   0 sei   :   1 sen   :   0 ser   :   1 ses   :   0 set   :   3 
sev   :   0 sez   :   0 sleep :   0 spm   :   0 st    : 112 std   :  61 
sts   :   4 sub   :   8 subi  :  25 swap  :   0 tst   :   8 wdr   :   1 

Instructions used: 69 out of 114 (60.5%)

ATmega8 memory use summary [bytes]:
Segment   Begin    End      Code   Data   Used    Size   Use%
---------------------------------------------------------------
[.cseg] 0x000000 0x0015d4   4210   1378   5588    8192  68.2%
[.dseg] 0x000060 0x0001bf      0     95     95    1024   9.3%
[.eseg] 0x000000 0x000000      0      0      0     512   0.0%

Assembly complete, 0 errors, 13 warnings
